(dp1
S'y1'
p2
(lp3
S'cat0151'
p4
asS'y2'
p5
(lp6
S'cat0152'
p7
asS'd2'
p8
(lp9
S'cat0008'
p10
asS'd1'
p11
(lp12
S'cat0007'
p13
asS'24'
p14
(lp15
S'cat0525'
p16
aS'cat0526'
p17
aS'cat0527'
p18
aS'cat527.a'
p19
aS'cat0528'
p20
aS'cat0529'
p21
aS'cat0530'
p22
aS'cat0531'
p23
aS'cat0532'
p24
aS'cat0533'
p25
aS'cat0534'
p26
aS'cat0535'
p27
aS'cat0536'
p28
aS'cat0537'
p29
aS'cat0538'
p30
aS'cat0539'
p31
aS'cat0540'
p32
aS'cat0541'
p33
aS'cat0542'
p34
aS'cat0543'
p35
aS'cat0544'
p36
aS'cat0545'
p37
aS'cat0546'
p38
aS'cat0547'
p39
aS'cat0548'
p40
aS'cat0549'
p41
asS'av2Eiii'
p42
(lp43
S'cat0413'
p44
aS'cat0414'
p45
aS'cat0415'
p46
aS'cat0416'
p47
aS'cat0417'
p48
asS'20'
p49
(lp50
S'cat0480'
p51
aS'cat480.a'
p52
aS'cat0481'
p53
aS'cat0482'
p54
aS'cat0483'
p55
aS'cat0484'
p56
aS'cat0485'
p57
aS'cat0486'
p58
aS'cat0487'
p59
aS'cat0488'
p60
aS'cat0489'
p61
aS'cat0490'
p62
aS'cat0491'
p63
aS'cat0492'
p64
aS'cat0493'
p65
aS'cat0494'
p66
aS'cat0495'
p67
aS'cat0496'
p68
aS'cat0497'
p69
aS'cat0498'
p70
aS'cat0499'
p71
aS'cat0500'
p72
aS'cat0501'
p73
aS'cat0502'
p74
aS'cat0503'
p75
aS'cat0504'
p76
asS'22'
p77
(lp78
S'cat0514'
p79
aS'cat514.a'
p80
aS'cat0515'
p81
asS'23'
p82
(lp83
S'cat0516'
p84
aS'cat0517'
p85
aS'cat0518'
p86
aS'cat0519'
p87
aS'cat0520'
p88
aS'cat0521'
p89
aS'cat0522'
p90
aS'cat0523'
p91
aS'cat0524'
p92
asS'h'
(lp93
S'cat0023'
p94
aS'cat0024'
p95
asS'f'
(lp96
S'cat0016'
p97
aS'cat016.a'
p98
asS'l'
(lp99
S'cat0050'
p100
aS'cat0051'
p101
aS'cat0052'
p102
aS'cat0053'
p103
aS'cat0054'
p104
aS'cat0055'
p105
aS'cat0056'
p106
aS'cat0057'
p107
asS'au1'
p108
(lp109
S'cat0357'
p110
aS'cat0358'
p111
aS'cat0359'
p112
aS'cat0360'
p113
aS'cat0361'
p114
aS'cat0362'
p115
aS'cat0363'
p116
asS'p'
(lp117
S'cat0075'
p118
aS'cat0076'
p119
aS'cat0077'
p120
aS'cat0078'
p121
aS'cat0079'
p122
asS'au2'
p123
(lp124
S'cat0364'
p125
aS'cat0365'
p126
aS'cat0366'
p127
aS'cat0367'
p128
aS'cat0368'
p129
aS'cat0369'
p130
aS'cat0370'
p131
aS'cat0371'
p132
aS'cat0372'
p133
aS'cat0373'
p134
aS'cat0374'
p135
aS'cat374.a'
p136
asS't'
(lp137
S'cat0100'
p138
aS'cat100.a'
p139
aS'cat0101'
p140
aS'cat0102'
p141
aS'cat0103'
p142
aS'cat0104'
p143
aS'cat0105'
p144
asS'x'
(lp145
S'cat0140'
p146
aS'cat0141'
p147
aS'cat0142'
p148
aS'cat0143'
p149
aS'cat0144'
p150
aS'cat0145'
p151
aS'cat0146'
p152
aS'cat0147'
p153
aS'cat0148'
p154
asS'as3'
p155
(lp156
S'cat0347'
p157
aS'cat0348'
p158
aS'cat0349'
p159
aS'cat0350'
p160
aS'cat0351'
p161
asS'as2'
p162
(lp163
S'cat0337'
p164
aS'cat0338'
p165
aS'cat0339'
p166
aS'cat0340'
p167
aS'cat0341'
p168
aS'cat0342'
p169
aS'cat0343'
p170
aS'cat0344'
p171
aS'cat0345'
p172
aS'cat0346'
p173
asS'as1'
p174
(lp175
S'cat0333'
p176
aS'cat0334'
p177
aS'cat0335'
p178
aS'cat0336'
p179
asS'aj2'
p180
(lp181
S'cat0234'
p182
aS'cat0235'
p183
aS'cat0236'
p184
aS'cat0237'
p185
aS'cat0238'
p186
aS'cat0239'
p187
asS'j1'
p188
(lp189
S'cat0031'
p190
aS'cat0032'
p191
asS'j2'
p192
(lp193
S'cat0033'
p194
aS'cat0034'
p195
asS'j3'
p196
(lp197
S'cat0035'
p198
aS'cat0036'
p199
asS'av2Fii'
p200
(lp201
S'cat0428'
p202
aS'cat0429'
p203
aS'cat0430'
p204
aS'cat0431'
p205
aS'cat0432'
p206
aS'cat0433'
p207
asS'bd'
p208
(lp209
S'cat0620'
p210
aS'cat0621'
p211
aS'cat0622'
p212
aS'cat0623'
p213
aS'cat0624'
p214
aS'cat0625'
p215
aS'cat0626'
p216
aS'cat0627'
p217
aS'cat0628'
p218
aS'cat0629'
p219
aS'cat0630'
p220
asS'bf'
p221
(lp222
S'cat0673'
p223
aS'cat0674'
p224
aS'cat0675'
p225
aS'cat0676'
p226
aS'cat0677'
p227
aS'cat0678'
p228
aS'cat0679'
p229
asS'bg'
p230
(lp231
S'cat0680'
p232
aS'cat0681'
p233
aS'cat0682'
p234
aS'cat0683'
p235
aS'cat0684'
p236
aS'cat0685'
p237
aS'cat0686'
p238
aS'cat0687'
p239
aS'cat0688'
p240
aS'cat0689'
p241
aS'cat0690'
p242
aS'cat0691'
p243
asS'ba'
p244
(lp245
S'cat0600'
p246
aS'cat0601'
p247
aS'cat0602'
p248
aS'cat0603'
p249
aS'cat0604'
p250
aS'cat604.a'
p251
aS'cat0605'
p252
aS'cat0606'
p253
aS'cat0607'
p254
aS'cat0608'
p255
aS'cat0609'
p256
aS'cat609.a'
p257
aS'cat0610'
p258
aS'cat0611'
p259
aS'cat0612'
p260
aS'cat0613'
p261
aS'cat0614'
p262
asS'bb'
p263
(lp264
S'cat0615'
p265
aS'cat615.a'
p266
aS'cat0616'
p267
aS'cat0617'
p268
asS'bc'
p269
(lp270
S'cat0618'
p271
aS'cat0619'
p272
asS'bl'
p273
(lp274
S'cat0794'
p275
aS'cat0795'
p276
aS'cat0796'
p277
aS'cat0797'
p278
aS'cat0798'
p279
aS'cat0799'
p280
aS'cat799.a'
p281
aS'cat799.b'
p282
asS'bm'
p283
(lp284
S'cat0800'
p285
aS'cat0801'
p286
aS'cat0802'
p287
aS'cat0803'
p288
aS'cat0804'
p289
aS'cat0805'
p290
aS'cat0806'
p291
aS'cat0807'
p292
aS'cat0808'
p293
aS'cat0809'
p294
aS'cat0810'
p295
aS'cat0811'
p296
aS'cat0812'
p297
aS'cat812.a'
p298
aS'cat812.b'
p299
aS'cat0813'
p300
aS'cat0814'
p301
aS'cat0815'
p302
aS'cat0816'
p303
aS'cat0817'
p304
aS'cat817.a'
p305
aS'cat0818'
p306
aS'cat0819'
p307
asS'bn'
p308
(lp309
S'cat0827'
p310
aS'cat0828'
p311
aS'cat0829'
p312
aS'cat0830'
p313
aS'cat0831'
p314
aS'cat0832'
p315
aS'cat0833'
p316
aS'cat0834'
p317
aS'cat0835'
p318
aS'cat0836'
p319
aS'cat0837'
p320
aS'cat0838'
p321
aS'cat0839'
p322
aS'cat0840'
p323
aS'cat0841'
p324
aS'cat0842'
p325
aS'cat0843'
p326
aS'cat0844'
p327
asS'bo'
p328
(lp329
S'cat0845'
p330
aS'cat0846'
p331
aS'cat0847'
p332
aS'cat847.a'
p333
aS'cat0848'
p334
aS'cat0849'
p335
aS'cat0850'
p336
aS'cat0851'
p337
aS'cat0852'
p338
aS'cat0853'
p339
aS'cat0854'
p340
aS'cat0855'
p341
aS'cat0856'
p342
aS'cat0857'
p343
asS'bh'
p344
(lp345
S'cat0692'
p346
aS'cat0693'
p347
aS'cat0694'
p348
aS'cat0695'
p349
aS'cat0696'
p350
aS'cat0697'
p351
aS'cat0698'
p352
aS'cat0699'
p353
aS'cat0700'
p354
aS'cat0701'
p355
aS'cat0702'
p356
aS'cat0703'
p357
asS'bi'
p358
(lp359
S'cat0704'
p360
aS'cat0705'
p361
aS'cat0706'
p362
aS'cat0707'
p363
aS'cat0708'
p364
aS'cat0709'
p365
aS'cat0710'
p366
aS'cat0711'
p367
aS'cat0712'
p368
aS'cat0713'
p369
aS'cat0714'
p370
aS'cat0715'
p371
aS'cat0716'
p372
aS'cat0717'
p373
aS'cat0718'
p374
aS'cat0719'
p375
aS'cat0720'
p376
aS'cat0721'
p377
aS'cat0722'
p378
aS'cat0723'
p379
aS'cat0724'
p380
aS'cat0725'
p381
aS'cat0726'
p382
aS'cat0727'
p383
aS'cat0728'
p384
asS'bj'
p385
(lp386
S'cat0775'
p387
aS'cat0776'
p388
aS'cat0777'
p389
aS'cat777.a'
p390
aS'cat0778'
p391
aS'cat0779'
p392
aS'cat0780'
p393
aS'cat0781'
p394
aS'cat0782'
p395
asS'bk'
p396
(lp397
S'cat0783'
p398
aS'cat0784'
p399
aS'cat0785'
p400
aS'cat0786'
p401
aS'cat0787'
p402
aS'cat0788'
p403
aS'cat0789'
p404
aS'cat0790'
p405
aS'cat0791'
p406
aS'cat0792'
p407
aS'cat0793'
p408
asS'bt'
p409
(lp410
S'cat0906'
p411
aS'cat0907'
p412
aS'cat0908'
p413
aS'cat0909'
p414
aS'cat0910'
p415
aS'cat0911'
p416
aS'cat0912'
p417
aS'cat0913'
p418
asS'bu'
p419
(lp420
S'cat0914'
p421
aS'cat914.a'
p422
aS'cat0915'
p423
asS'bv'
p424
(lp425
S'cat0916'
p426
aS'cat0917'
p427
aS'cat0918'
p428
aS'cat0919'
p429
aS'cat0920'
p430
aS'cat0921'
p431
asS'bw'
p432
(lp433
S'cat0922'
p434
aS'cat0923'
p435
aS'cat0924'
p436
aS'cat0925'
p437
aS'cat0926'
p438
aS'cat0927'
p439
aS'cat927.a'
p440
asS'bp'
p441
(lp442
S'cat0858'
p443
aS'cat0859'
p444
aS'cat0860'
p445
aS'cat0861'
p446
aS'cat0862'
p447
aS'cat0863'
p448
aS'cat0864'
p449
aS'cat0865'
p450
aS'cat0866'
p451
aS'cat0867'
p452
aS'cat0868'
p453
aS'cat0869'
p454
asS'bq'
p455
(lp456
S'cat0870'
p457
aS'cat0871'
p458
aS'cat0872'
p459
asS'br'
p460
(lp461
S'cat0873'
p462
aS'cat0874'
p463
aS'cat0875'
p464
aS'cat0876'
p465
aS'cat0877'
p466
aS'cat0878'
p467
aS'cat0879'
p468
aS'cat0880'
p469
aS'cat0881'
p470
aS'cat0882'
p471
aS'cat0883'
p472
aS'cat0884'
p473
aS'cat0885'
p474
aS'cat0886'
p475
aS'cat0887'
p476
asS'bs'
p477
(lp478
S'cat0888'
p479
aS'cat0889'
p480
aS'cat0890'
p481
aS'cat0891'
p482
aS'cat0892'
p483
aS'cat0893'
p484
aS'cat0894'
p485
aS'cat0895'
p486
aS'cat0896'
p487
aS'cat0897'
p488
aS'cat0898'
p489
aS'cat0899'
p490
aS'cat0900'
p491
aS'cat0901'
p492
aS'cat901.a'
p493
aS'cat0902'
p494
aS'cat0903'
p495
aS'cat0904'
p496
aS'cat0905'
p497
asS'bx'
p498
(lp499
S'cat0928'
p500
aS'cat0929'
p501
aS'cat0930'
p502
aS'cat0931'
p503
aS'cat0932'
p504
aS'cat0933'
p505
aS'cat0934'
p506
aS'cat0935'
p507
aS'cat0936'
p508
aS'cat0937'
p509
aS'cat0938'
p510
asS'by'
p511
(lp512
S'cat0939'
p513
aS'cat0940'
p514
aS'cat0941'
p515
aS'cat0942'
p516
aS'cat0943'
p517
aS'cat0944'
p518
aS'cat0945'
p519
aS'cat0946'
p520
aS'cat0947'
p521
aS'cat0948'
p522
aS'cat0949'
p523
aS'cat0950'
p524
aS'cat0951'
p525
aS'cat0952'
p526
asS'bz'
p527
(lp528
S'cat0953'
p529
aS'cat0954'
p530
aS'cat954.a'
p531
aS'cat0955'
p532
aS'cat0956'
p533
aS'cat0957'
p534
aS'cat0958'
p535
aS'cat0959'
p536
aS'cat0960'
p537
aS'cat0961'
p538
aS'cat0962'
p539
asS'av2C'
p540
(lp541
S'cat0390'
p542
aS'cat0391'
p543
aS'cat0392'
p544
aS'cat392.a'
p545
aS'cat392.b'
p546
aS'cat0393'
p547
aS'cat0394'
p548
aS'cat0395'
p549
aS'cat0396'
p550
aS'cat0397'
p551
asS'av2B'
p552
(lp553
S'cat0382'
p554
aS'cat0383'
p555
aS'cat0384'
p556
aS'cat0385'
p557
aS'cat0386'
p558
aS'cat0387'
p559
aS'cat0388'
p560
aS'cat388.a'
p561
aS'cat0389'
p562
asS'c'
(lp563
S'cat0005'
p564
asS'g'
(lp565
S'cat0017'
p566
aS'cat0018'
p567
aS'cat0019'
p568
aS'cat0020'
p569
aS'cat20.a'
p570
aS'cat0021'
p571
aS'cat0022'
p572
asS'av2D'
p573
(lp574
S'cat0398'
p575
aS'cat0399'
p576
aS'cat0400'
p577
aS'cat0401'
p578
aS'cat401.a'
p579
asS'33'
p580
(lp581
S'cat0768'
p582
aS'cat768.a'
p583
aS'cat0769'
p584
aS'cat0770'
p585
aS'cat0771'
p586
aS'cat0772'
p587
aS'cat0773'
p588
aS'cat0774'
p589
asS'32'
p590
(lp591
S'cat0760'
p592
aS'cat0761'
p593
aS'cat0762'
p594
aS'cat0763'
p595
aS'cat0764'
p596
aS'cat0765'
p597
aS'cat0766'
p598
aS'cat0767'
p599
asS'31'
p600
(lp601
S'cat0737'
p602
aS'cat737.a'
p603
aS'cat737.b'
p604
aS'cat0738'
p605
aS'cat0739'
p606
aS'cat0740'
p607
aS'cat0741'
p608
aS'cat0742'
p609
aS'cat0743'
p610
aS'cat0744'
p611
aS'cat0745'
p612
aS'cat0746'
p613
aS'cat0747'
p614
aS'cat0748'
p615
aS'cat0749'
p616
aS'cat0750'
p617
aS'cat0751'
p618
aS'cat0752'
p619
aS'cat0753'
p620
aS'cat0754'
p621
aS'cat0755'
p622
aS'cat0756'
p623
aS'cat0757'
p624
aS'cat0758'
p625
aS'cat0759'
p626
asS'30'
p627
(lp628
S'cat0729'
p629
aS'cat0730'
p630
aS'cat0731'
p631
aS'cat0732'
p632
aS'cat0733'
p633
aS'cat0734'
p634
aS'cat0735'
p635
aS'cat0736'
p636
asS'o'
(lp637
S'cat0072'
p638
aS'cat0073'
p639
aS'cat0074'
p640
asS's'
(lp641
S'cat0087'
p642
aS'cat0088'
p643
aS'cat0089'
p644
aS'cat0090'
p645
aS'cat0091'
p646
aS'cat0092'
p647
aS'cat0093'
p648
aS'cat0094'
p649
aS'cat0095'
p650
aS'cat0096'
p651
aS'cat0097'
p652
aS'cat0098'
p653
aS'cat0099'
p654
asS'w'
(lp655
S'cat0136'
p656
aS'cat0137'
p657
aS'cat0138'
p658
aS'cat0139'
p659
asS'cc'
p660
(lp661
S'cat0979'
p662
aS'cat0980'
p663
aS'cat0981'
p664
aS'cat0982'
p665
aS'cat0983'
p666
aS'cat983.a'
p667
aS'cat0984'
p668
aS'cat0985'
p669
aS'cat0986'
p670
asS'cb'
p671
(lp672
S'cat0976'
p673
aS'cat0977'
p674
aS'cat0978'
p675
asS'ca'
p676
(lp677
S'cat0963'
p678
aS'cat0964'
p679
aS'cat0965'
p680
aS'cat0966'
p681
aS'cat0967'
p682
aS'cat0968'
p683
aS'cat0969'
p684
aS'cat0970'
p685
aS'cat0971'
p686
aS'cat0972'
p687
aS'cat0973'
p688
aS'cat0974'
p689
aS'cat0975'
p690
asS'cf'
p691
(lp692
S'cat0995'
p693
aS'cat0996'
p694
aS'cat0997'
p695
aS'cat0998'
p696
aS'cat0999'
p697
aS'cat1000'
p698
asS'ce'
p699
(lp700
S'cat0990'
p701
aS'cat0991'
p702
aS'cat0992'
p703
aS'cat0993'
p704
aS'cat0994'
p705
asS'cd'
p706
(lp707
S'cat0987'
p708
aS'cat0988'
p709
aS'cat0989'
p710
asS'ab'
p711
(lp712
S'cat0161'
p713
aS'cat0162'
p714
aS'cat0163'
p715
aS'cat0164'
p716
aS'cat0165'
p717
aS'cat0166'
p718
aS'cat0167'
p719
aS'cat0168'
p720
aS'cat0169'
p721
aS'cat0170'
p722
aS'cat0171'
p723
aS'cat0172'
p724
aS'cat0173'
p725
aS'cat0174'
p726
asS'az3'
p727
(lp728
S'cat0590'
p729
aS'cat0591'
p730
aS'cat0592'
p731
aS'cat0593'
p732
aS'cat0594'
p733
aS'cat0595'
p734
aS'cat0596'
p735
aS'cat0597'
p736
aS'cat0598'
p737
aS'cat0599'
p738
asS'be2'
p739
(lp740
S'cat0664'
p741
aS'cat0665'
p742
aS'cat0666'
p743
aS'cat0667'
p744
aS'cat0668'
p745
aS'cat0669'
p746
aS'cat0670'
p747
aS'cat0671'
p748
aS'cat0672'
p749
asS'az1'
p750
(lp751
S'cat0560'
p752
aS'cat0561'
p753
aS'cat0562'
p754
aS'cat0563'
p755
aS'cat0564'
p756
aS'cat0565'
p757
aS'cat0566'
p758
aS'cat0567'
p759
aS'cat0568'
p760
aS'cat0569'
p761
aS'cat0570'
p762
aS'cat0571'
p763
aS'cat0572'
p764
aS'cat0573'
p765
aS'cat0574'
p766
aS'cat0575'
p767
aS'cat0576'
p768
aS'cat0577'
p769
aS'cat0578'
p770
aS'cat0579'
p771
asS'az2'
p772
(lp773
S'cat0580'
p774
aS'cat0581'
p775
aS'cat0582'
p776
aS'cat0583'
p777
aS'cat0584'
p778
aS'cat0585'
p779
aS'cat0586'
p780
aS'cat0587'
p781
aS'cat0588'
p782
aS'cat0589'
p783
asS'be1'
p784
(lp785
S'cat0631'
p786
aS'cat0632'
p787
aS'cat0633'
p788
aS'cat0634'
p789
aS'cat0635'
p790
aS'cat0636'
p791
aS'cat0637'
p792
aS'cat0638'
p793
aS'cat0639'
p794
aS'cat0640'
p795
aS'cat0641'
p796
aS'cat0642'
p797
aS'cat0643'
p798
aS'cat0644'
p799
aS'cat0645'
p800
aS'cat0646'
p801
aS'cat0647'
p802
aS'cat0648'
p803
aS'cat0649'
p804
aS'cat0650'
p805
aS'cat0651'
p806
aS'cat0652'
p807
aS'cat0653'
p808
aS'cat0654'
p809
aS'cat0655'
p810
aS'cat0656'
p811
aS'cat0657'
p812
aS'cat0658'
p813
aS'cat0659'
p814
aS'cat0660'
p815
aS'cat0661'
p816
aS'cat0662'
p817
aS'cat0663'
p818
asS'av2Fiib'
p819
(lp820
S'cat0435'
p821
aS'cat0436'
p822
aS'cat0437'
p823
aS'cat0438'
p824
aS'cat0439'
p825
aS'cat0440'
p826
asS'av2Fiia'
p827
(lp828
S'cat0434'
p829
asS'av2Ei'
p830
(lp831
S'cat0402'
p832
aS'cat0403'
p833
aS'cat0404'
p834
aS'cat0405'
p835
asS'av2Fiii'
p836
(lp837
S'cat0441'
p838
aS'cat0442'
p839
aS'cat0443'
p840
aS'cat0444'
p841
aS'cat0445'
p842
aS'cat0446'
p843
aS'cat0447'
p844
aS'cat0448'
p845
aS'cat0449'
p846
asS'av2A'
p847
(lp848
S'cat0379'
p849
aS'cat0380'
p850
aS'cat0381'
p851
asS'c1'
p852
(lp853
S'cat0006'
p854
asS'av2Fi'
p855
(lp856
S'cat0420'
p857
aS'cat0421'
p858
aS'cat0422'
p859
aS'cat0423'
p860
aS'cat0424'
p861
aS'cat0425'
p862
aS'cat0426'
p863
aS'cat426.a'
p864
aS'cat0427'
p865
asS'13'
p866
(lp867
S'cat0316'
p868
aS'cat0317'
p869
aS'cat0318'
p870
aS'cat0319'
p871
aS'cat0320'
p872
asS'b'
(lp873
S'cat0003'
p874
aS'cat0004'
p875
asS'17'
p876
(lp877
S'cat0455'
p878
aS'cat0456'
p879
aS'cat0457'
p880
aS'cat0458'
p881
aS'cat0459'
p882
aS'cat0460'
p883
aS'cat0461'
p884
aS'cat0462'
p885
aS'cat0463'
p886
aS'cat0464'
p887
aS'cat464.a'
p888
aS'cat0465'
p889
aS'cat465.a'
p890
aS'cat465.b'
p891
aS'cat0466'
p892
asS'16'
p893
(lp894
S'cat0450'
p895
aS'cat450.a'
p896
aS'cat0451'
p897
aS'cat0452'
p898
aS'cat0453'
p899
aS'cat0454'
p900
asS'19'
p901
(lp902
S'cat0476'
p903
aS'cat0477'
p904
aS'cat0478'
p905
aS'cat0479'
p906
asS'18'
p907
(lp908
S'cat0467'
p909
aS'cat0468'
p910
aS'cat0469'
p911
asS'j'
(lp912
S'cat0027'
p913
aS'cat0028'
p914
aS'cat0029'
p915
aS'cat0030'
p916
asS'n'
(lp917
S'cat0062'
p918
aS'cat0063'
p919
aS'cat0064'
p920
aS'cat0065'
p921
aS'cat0066'
p922
aS'cat0067'
p923
aS'cat0068'
p924
aS'cat0069'
p925
aS'cat0070'
p926
aS'cat0071'
p927
asS'r'
(lp928
S'cat0084'
p929
aS'cat0085'
p930
aS'cat0086'
p931
asS'aj1'
p932
(lp933
S'cat0220'
p934
aS'cat0221'
p935
aS'cat0222'
p936
aS'cat0223'
p937
aS'cat0224'
p938
aS'cat0225'
p939
aS'cat0226'
p940
aS'cat0227'
p941
aS'cat0228'
p942
aS'cat0229'
p943
aS'cat0230'
p944
aS'cat0231'
p945
aS'cat0232'
p946
aS'cat0233'
p947
asS'z'
(lp948
S'cat0153'
p949
aS'cat0154'
p950
aS'cat0155'
p951
aS'cat0156'
p952
asS'k'
(lp953
S'cat0037'
p954
aS'cat0038'
p955
aS'cat0039'
p956
aS'cat0040'
p957
aS'cat40.a'
p958
aS'cat0041'
p959
aS'cat0042'
p960
aS'cat0043'
p961
aS'cat0044'
p962
aS'cat0045'
p963
aS'cat0046'
p964
aS'cat0047'
p965
aS'cat0048'
p966
aS'cat0049'
p967
asS'at'
p968
(lp969
S'cat0352'
p970
aS'cat0353'
p971
aS'cat0354'
p972
aS'cat0355'
p973
aS'cat0356'
p974
aS'cat356.a'
p975
asS'aa'
p976
(lp977
S'cat0157'
p978
aS'cat0158'
p979
aS'cat0159'
p980
aS'cat0160'
p981
asS'ac'
p982
(lp983
S'cat0175'
p984
aS'cat175.a'
p985
aS'cat0176'
p986
aS'cat0177'
p987
asS'v'
(lp988
S'cat0116'
p989
aS'cat0117'
p990
aS'cat0118'
p991
aS'cat0119'
p992
aS'cat0120'
p993
aS'cat0121'
p994
aS'cat0122'
p995
aS'cat0123'
p996
aS'cat0124'
p997
aS'cat0125'
p998
aS'cat0126'
p999
aS'cat0127'
p1000
aS'cat0128'
p1001
aS'cat0129'
p1002
aS'cat0130'
p1003
aS'cat0131'
p1004
asS'ae'
p1005
(lp1006
S'cat0180'
p1007
aS'cat180.a'
p1008
aS'cat0181'
p1009
aS'cat0182'
p1010
asS'ad'
p1011
(lp1012
S'cat0178'
p1013
aS'cat0179'
p1014
asS'ag'
p1015
(lp1016
S'cat0186'
p1017
aS'cat0187'
p1018
aS'cat0188'
p1019
aS'cat0189'
p1020
aS'cat0190'
p1021
aS'cat0191'
p1022
asS'af'
p1023
(lp1024
S'cat0183'
p1025
aS'cat0184'
p1026
aS'cat0185'
p1027
asS'ai'
p1028
(lp1029
S'cat0200'
p1030
aS'cat0201'
p1031
aS'cat0202'
p1032
aS'cat0203'
p1033
aS'cat0204'
p1034
aS'cat0205'
p1035
aS'cat0206'
p1036
aS'cat0207'
p1037
aS'cat0208'
p1038
aS'cat0209'
p1039
aS'cat0210'
p1040
aS'cat0211'
p1041
aS'cat0212'
p1042
aS'cat0213'
p1043
aS'cat0214'
p1044
aS'cat0215'
p1045
aS'cat0216'
p1046
aS'cat216.a'
p1047
aS'cat0217'
p1048
aS'cat0219'
p1049
asS'ah'
p1050
(lp1051
S'cat0192'
p1052
aS'cat0193'
p1053
aS'cat0194'
p1054
aS'cat0195'
p1055
aS'cat0196'
p1056
aS'cat0197'
p1057
aS'cat0198'
p1058
aS'cat0199'
p1059
asS'ak'
p1060
(lp1061
S'cat0240'
p1062
aS'cat0242'
p1063
aS'cat0241'
p1064
aS'cat0243'
p1065
asS'am'
p1066
(lp1067
S'cat0250'
p1068
aS'cat0251'
p1069
aS'cat0252'
p1070
aS'cat252.a'
p1071
aS'cat0253'
p1072
aS'cat0254'
p1073
aS'cat0255'
p1074
aS'cat0256'
p1075
aS'cat0257'
p1076
aS'cat0258'
p1077
aS'cat0259'
p1078
aS'cat0260'
p1079
aS'cat0261'
p1080
aS'cat0262'
p1081
aS'cat0263'
p1082
asS'al'
p1083
(lp1084
S'cat0244'
p1085
aS'cat0245'
p1086
aS'cat0246'
p1087
aS'cat0247'
p1088
aS'cat0248'
p1089
aS'cat0249'
p1090
asS'ao'
p1091
(lp1092
S'cat0274'
p1093
aS'cat0275'
p1094
asS'an'
p1095
(lp1096
S'cat0264'
p1097
aS'cat0265'
p1098
aS'cat0266'
p1099
aS'cat0267'
p1100
aS'cat0268'
p1101
aS'cat0269'
p1102
aS'cat0270'
p1103
aS'cat0271'
p1104
aS'cat0272'
p1105
aS'cat0273'
p1106
asS'aq'
p1107
(lp1108
S'cat0278'
p1109
aS'cat0279'
p1110
aS'cat0280'
p1111
aS'cat0281'
p1112
aS'cat0282'
p1113
aS'cat0283'
p1114
aS'cat0284'
p1115
aS'cat0285'
p1116
aS'cat0286'
p1117
aS'cat0287'
p1118
aS'cat0288'
p1119
aS'cat0289'
p1120
aS'cat0290'
p1121
aS'cat0291'
p1122
aS'cat0292'
p1123
aS'cat0293'
p1124
aS'cat0294'
p1125
aS'cat0295'
p1126
aS'cat0296'
p1127
aS'cat0297'
p1128
aS'cat0298'
p1129
aS'cat0299'
p1130
aS'cat0300'
p1131
aS'cat0301'
p1132
aS'cat0302'
p1133
aS'cat0303'
p1134
aS'cat0304'
p1135
aS'cat0305'
p1136
aS'cat0306'
p1137
aS'cat0307'
p1138
aS'cat0308'
p1139
aS'cat0309'
p1140
aS'cat0310'
p1141
aS'cat0311'
p1142
aS'cat0312'
p1143
aS'cat0313'
p1144
aS'cat0314'
p1145
aS'cat0315'
p1146
asS'ap'
p1147
(lp1148
S'cat0276'
p1149
aS'cat0277'
p1150
asS'ar'
p1151
(lp1152
S'cat0321'
p1153
aS'cat0322'
p1154
aS'cat0323'
p1155
aS'cat0324'
p1156
aS'cat0325'
p1157
aS'cat0326'
p1158
aS'cat0327'
p1159
aS'cat0328'
p1160
aS'cat0329'
p1161
aS'cat0330'
p1162
aS'cat0331'
p1163
aS'cat0332'
p1164
asS'35'
p1165
(lp1166
S'cat0820'
p1167
aS'cat0821'
p1168
aS'cat0822'
p1169
aS'cat0823'
p1170
aS'cat0824'
p1171
aS'cat0825'
p1172
aS'cat0826'
p1173
asS'aw'
p1174
(lp1175
S'cat0470'
p1176
aS'cat0471'
p1177
aS'cat0472'
p1178
aS'cat0473'
p1179
aS'cat0474'
p1180
aS'cat0475'
p1181
asS'ay'
p1182
(lp1183
S'cat0550'
p1184
aS'cat0551'
p1185
aS'cat0552'
p1186
aS'cat0553'
p1187
aS'cat0554'
p1188
aS'cat0555'
p1189
aS'cat0556'
p1190
aS'cat0557'
p1191
aS'cat0558'
p1192
aS'cat0559'
p1193
asS'ax'
p1194
(lp1195
S'cat0505'
p1196
aS'cat0506'
p1197
aS'cat0507'
p1198
aS'cat0508'
p1199
aS'cat0509'
p1200
aS'cat0510'
p1201
aS'cat0511'
p1202
aS'cat0512'
p1203
aS'cat0513'
p1204
asS'av2Eii'
p1205
(lp1206
S'cat0406'
p1207
aS'cat0407'
p1208
aS'cat0408'
p1209
aS'cat408.a'
p1210
aS'cat0409'
p1211
aS'cat0410'
p1212
aS'cat0411'
p1213
aS'cat0412'
p1214
asS'av1'
p1215
(lp1216
S'cat0375'
p1217
aS'cat0376'
p1218
aS'cat0377'
p1219
aS'cat0378'
p1220
asS'v1'
p1221
(lp1222
S'cat0132'
p1223
aS'cat132.a'
p1224
aS'cat0133'
p1225
aS'cat0134'
p1226
aS'cat0135'
p1227
asS'av2Eiv'
p1228
(lp1229
S'cat0418'
p1230
aS'cat0419'
p1231
asS'a'
(lp1232
S'cat0001'
p1233
aS'cat0002'
p1234
asS'e'
(lp1235
S'cat0009'
p1236
aS'cat0010'
p1237
aS'cat0011'
p1238
aS'cat0012'
p1239
aS'cat0013'
p1240
aS'cat0014'
p1241
aS'cat0015'
p1242
asS'i'
(lp1243
S'cat0025'
p1244
aS'cat0026'
p1245
asS'm'
(lp1246
S'cat0058'
p1247
aS'cat0059'
p1248
aS'cat59.a'
p1249
aS'cat0060'
p1250
aS'cat0061'
p1251
asS'q'
(lp1252
S'cat0080'
p1253
aS'cat0081'
p1254
aS'cat0082'
p1255
aS'cat0083'
p1256
asS'u'
(lp1257
S'cat0106'
p1258
aS'cat0107'
p1259
aS'cat0108'
p1260
aS'cat108.a'
p1261
aS'cat0109'
p1262
aS'cat0110'
p1263
aS'cat0111'
p1264
aS'cat0112'
p1265
aS'cat0113'
p1266
aS'cat0114'
p1267
aS'cat0115'
p1268
asS'y'
(lp1269
S'cat0149'
p1270
aS'cat0150'
p1271
as.