(dp1
S'cat0339'
p2
S'as2'
p3
sS'cat0338'
p4
g3
sS'cat0288'
p5
S'aq'
p6
sS'cat0335'
p7
S'as1'
p8
sS'cat0334'
p9
g8
sS'cat0337'
p10
g3
sS'cat0336'
p11
g8
sS'cat0331'
p12
S'ar'
p13
sS'cat0330'
p14
g13
sS'cat0333'
p15
g8
sS'cat0332'
p16
g13
sS'cat0560'
p17
S'az1'
p18
sS'cat0561'
p19
g18
sS'cat0562'
p20
g18
sS'cat0563'
p21
g18
sS'cat0564'
p22
g18
sS'cat0565'
p23
g18
sS'cat0566'
p24
g18
sS'cat0567'
p25
g18
sS'cat0568'
p26
g18
sS'cat0569'
p27
g18
sS'cat0649'
p28
S'be1'
p29
sS'cat0648'
p30
g29
sS'cat465.b'
p31
S'17'
p32
sS'cat0641'
p33
g29
sS'cat0640'
p34
g29
sS'cat0643'
p35
g29
sS'cat0939'
p36
S'by'
p37
sS'cat0645'
p38
g29
sS'cat0644'
p39
g29
sS'cat0647'
p40
g29
sS'cat0646'
p41
g29
sS'cat0920'
p42
S'bv'
p43
sS'cat0898'
p44
S'bs'
p45
sS'cat0692'
p46
S'bh'
p47
sS'cat0660'
p48
g29
sS'cat0518'
p49
S'23'
p50
sS'cat0890'
p51
g45
sS'cat0891'
p52
g45
sS'cat0892'
p53
g45
sS'cat0893'
p54
g45
sS'cat0894'
p55
g45
sS'cat0922'
p56
S'bw'
p57
sS'cat0896'
p58
g45
sS'cat0897'
p59
g45
sS'cat0209'
p60
S'ai'
p61
sS'cat0208'
p62
g61
sS'cat0923'
p63
g57
sS'cat0201'
p64
g61
sS'cat0924'
p65
g57
sS'cat0203'
p66
g61
sS'cat0202'
p67
g61
sS'cat0205'
p68
g61
sS'cat0204'
p69
g61
sS'cat0207'
p70
g61
sS'cat0925'
p71
g57
sS'cat0803'
p72
S'bm'
p73
sS'cat0802'
p74
g73
sS'cat0801'
p75
g73
sS'cat0800'
p76
g73
sS'cat0807'
p77
g73
sS'cat0806'
p78
g73
sS'cat0805'
p79
g73
sS'cat0804'
p80
g73
sS'cat0414'
p81
S'av2Eiii'
p82
sS'cat0415'
p83
g82
sS'cat0416'
p84
g82
sS'cat0417'
p85
g82
sS'cat0410'
p86
S'av2Eii'
p87
sS'cat0411'
p88
g87
sS'cat0412'
p89
g87
sS'cat0413'
p90
g82
sS'cat0511'
p91
S'ax'
p92
sS'cat0968'
p93
S'ca'
p94
sS'cat0969'
p95
g94
sS'cat0510'
p96
g92
sS'cat0964'
p97
g94
sS'cat0965'
p98
g94
sS'cat0966'
p99
g94
sS'cat737.a'
p100
S'31'
p101
sS'cat0960'
p102
S'bz'
p103
sS'cat0961'
p104
g103
sS'cat0962'
p105
g103
sS'cat0963'
p106
g94
sS'cat0059'
p107
S'm'
sS'cat0512'
p108
g92
sS'cat0168'
p109
S'ab'
p110
sS'cat180.a'
p111
S'ae'
p112
sS'cat0167'
p113
g110
sS'cat0006'
p114
S'c1'
p115
sS'cat0115'
p116
S'u'
sS'cat0114'
p117
S'u'
sS'cat0117'
p118
S'v'
sS'cat0116'
p119
S'v'
sS'cat0111'
p120
S'u'
sS'cat0110'
p121
S'u'
sS'cat59.a'
p122
S'm'
sS'cat0112'
p123
S'u'
sS'cat0119'
p124
S'v'
sS'cat0118'
p125
S'v'
sS'cat812.b'
p126
g73
sS'cat812.a'
p127
g73
sS'cat0298'
p128
g6
sS'cat0299'
p129
g6
sS'cat0296'
p130
g6
sS'cat0297'
p131
g6
sS'cat0294'
p132
g6
sS'cat0295'
p133
g6
sS'cat0292'
p134
g6
sS'cat0293'
p135
g6
sS'cat0290'
p136
g6
sS'cat0291'
p137
g6
sS'cat0161'
p138
g110
sS'cat464.a'
p139
g32
sS'cat0748'
p140
g101
sS'cat0749'
p141
g101
sS'cat0063'
p142
S'n'
sS'cat0062'
p143
S'n'
sS'cat0065'
p144
S'n'
sS'cat0064'
p145
S'n'
sS'cat0067'
p146
S'n'
sS'cat0066'
p147
S'n'
sS'cat0740'
p148
g101
sS'cat0741'
p149
g101
sS'cat0742'
p150
g101
sS'cat0743'
p151
g101
sS'cat0744'
p152
g101
sS'cat0745'
p153
g101
sS'cat0746'
p154
g101
sS'cat901.a'
p155
g45
sS'cat0107'
p156
S'u'
sS'cat388.a'
p157
S'av2B'
p158
sS'cat0642'
p159
g29
sS'cat0354'
p160
S'at'
p161
sS'cat0609'
p162
S'ba'
p163
sS'cat0608'
p164
g163
sS'cat0639'
p165
g29
sS'cat0605'
p166
g163
sS'cat0604'
p167
g163
sS'cat0607'
p168
g163
sS'cat0606'
p169
g163
sS'cat0601'
p170
g163
sS'cat0600'
p171
g163
sS'cat0603'
p172
g163
sS'cat0602'
p173
g163
sS'cat0109'
p174
S'u'
sS'cat0097'
p175
S's'
sS'cat0409'
p176
g87
sS'cat0513'
p177
g92
sS'cat737.b'
p178
g101
sS'cat0366'
p179
S'au2'
p180
sS'cat0367'
p181
g180
sS'cat0364'
p182
g180
sS'cat0365'
p183
g180
sS'cat0362'
p184
S'au1'
p185
sS'cat0363'
p186
g185
sS'cat0360'
p187
g185
sS'cat0361'
p188
g185
sS'cat0245'
p189
S'al'
p190
sS'cat0244'
p191
g190
sS'cat0247'
p192
g190
sS'cat480.a'
p193
S'20'
p194
sS'cat0241'
p195
S'ak'
p196
sS'cat0240'
p197
g196
sS'cat0368'
p198
g180
sS'cat0369'
p199
g180
sS'cat0450'
p200
S'16'
p201
sS'cat0451'
p202
g201
sS'cat0452'
p203
g201
sS'cat0453'
p204
g201
sS'cat0454'
p205
g201
sS'cat0455'
p206
g32
sS'cat0456'
p207
g32
sS'cat0457'
p208
g32
sS'cat0458'
p209
g32
sS'cat0459'
p210
g32
sS'cat0519'
p211
g50
sS'cat0693'
p212
g47
sS'cat0690'
p213
S'bg'
p214
sS'cat0691'
p215
g214
sS'cat0696'
p216
g47
sS'cat0697'
p217
g47
sS'cat0694'
p218
g47
sS'cat0695'
p219
g47
sS'cat0928'
p220
S'bx'
p221
sS'cat0929'
p222
g221
sS'cat0698'
p223
g47
sS'cat0699'
p224
g47
sS'cat0515'
p225
S'22'
p226
sS'cat0514'
p227
g226
sS'cat0517'
p228
g50
sS'cat0516'
p229
g50
sS'cat0090'
p230
S's'
sS'cat0091'
p231
S's'
sS'cat0092'
p232
S's'
sS'cat0093'
p233
S's'
sS'cat0094'
p234
S's'
sS'cat0095'
p235
S's'
sS'cat0096'
p236
S's'
sS'cat0899'
p237
g45
sS'cat0098'
p238
S's'
sS'cat0099'
p239
S's'
sS'cat0178'
p240
S'ad'
p241
sS'cat0399'
p242
S'av2D'
p243
sS'cat0398'
p244
g243
sS'cat0393'
p245
S'av2C'
p246
sS'cat0392'
p247
g246
sS'cat0391'
p248
g246
sS'cat0390'
p249
g246
sS'cat0397'
p250
g246
sS'cat0396'
p251
g246
sS'cat0395'
p252
g246
sS'cat0394'
p253
g246
sS'cat0995'
p254
S'cf'
p255
sS'cat0994'
p256
S'ce'
p257
sS'cat0997'
p258
g255
sS'cat0996'
p259
g255
sS'cat0858'
p260
S'bp'
p261
sS'cat0859'
p262
g261
sS'cat0993'
p263
g257
sS'cat0992'
p264
g257
sS'cat0854'
p265
S'bo'
p266
sS'cat0855'
p267
g266
sS'cat0856'
p268
g266
sS'cat0857'
p269
g266
sS'cat0850'
p270
g266
sS'cat0851'
p271
g266
sS'cat0852'
p272
g266
sS'cat0853'
p273
g266
sS'cat0418'
p274
S'av2Eiv'
p275
sS'cat0825'
p276
S'35'
p277
sS'cat0895'
p278
g45
sS'cat0025'
p279
S'i'
sS'cat0024'
p280
S'h'
sS'cat0027'
p281
S'j'
sS'cat0026'
p282
S'i'
sS'cat0788'
p283
S'bk'
p284
sS'cat0789'
p285
g284
sS'cat0023'
p286
S'h'
sS'cat0022'
p287
S'g'
sS'cat0784'
p288
g284
sS'cat0785'
p289
g284
sS'cat0786'
p290
g284
sS'cat0787'
p291
g284
sS'cat0780'
p292
S'bj'
p293
sS'cat0781'
p294
g293
sS'cat0782'
p295
g293
sS'cat0783'
p296
g284
sS'cat0148'
p297
S'x'
sS'cat0149'
p298
S'y'
sS'cat0146'
p299
S'x'
sS'cat0147'
p300
S'x'
sS'cat0144'
p301
S'x'
sS'cat0145'
p302
S'x'
sS'cat0142'
p303
S'x'
sS'cat0143'
p304
S'x'
sS'cat0140'
p305
S'x'
sS'cat0141'
p306
S'x'
sS'cat450.a'
p307
g201
sS'cat0470'
p308
S'aw'
p309
sS'cat0824'
p310
g277
sS'cat1000'
p311
g255
sS'cat799.b'
p312
S'bl'
p313
sS'cat799.a'
p314
g313
sS'cat374.a'
p315
g180
sS'cat0273'
p316
S'an'
p317
sS'cat0200'
p318
g61
sS'cat20.a'
p319
S'g'
sS'cat0552'
p320
S'ay'
p321
sS'cat0471'
p322
g309
sS'cat0731'
p323
S'30'
p324
sS'cat0730'
p325
g324
sS'cat0733'
p326
g324
sS'cat0732'
p327
g324
sS'cat0735'
p328
g324
sS'cat0734'
p329
g324
sS'cat0737'
p330
g101
sS'cat0736'
p331
g324
sS'cat0739'
p332
g101
sS'cat0738'
p333
g101
sS'cat0991'
p334
g257
sS'cat0206'
p335
g61
sS'cat0990'
p336
g257
sS'cat0328'
p337
g13
sS'cat0329'
p338
g13
sS'cat0588'
p339
S'az2'
p340
sS'cat0046'
p341
S'k'
sS'cat0322'
p342
g13
sS'cat0323'
p343
g13
sS'cat0320'
p344
S'13'
p345
sS'cat0589'
p346
g340
sS'cat0326'
p347
g13
sS'cat0327'
p348
g13
sS'cat0324'
p349
g13
sS'cat0325'
p350
g13
sS'cat0656'
p351
g29
sS'cat0586'
p352
g340
sS'cat0654'
p353
g29
sS'cat0655'
p354
g29
sS'cat0652'
p355
g29
sS'cat0653'
p356
g29
sS'cat0650'
p357
g29
sS'cat0587'
p358
g340
sS'cat0555'
p359
g321
sS'cat0554'
p360
g321
sS'cat0557'
p361
g321
sS'cat0556'
p362
g321
sS'cat0029'
p363
S'j'
sS'cat604.a'
p364
g163
sS'cat0658'
p365
g29
sS'cat0659'
p366
g29
sS'cat0379'
p367
S'av2A'
p368
sS'cat0585'
p369
g340
sS'cat0041'
p370
S'k'
sS'cat0378'
p371
S'av1'
p372
sS'cat0999'
p373
g255
sS'cat0040'
p374
S'k'
sS'cat0998'
p375
g255
sS'cat0580'
p376
g340
sS'cat0581'
p377
g340
sS'cat0809'
p378
g73
sS'cat0770'
p379
S'33'
p380
sS'cat0216'
p381
g61
sS'cat0217'
p382
g61
sS'cat0214'
p383
g61
sS'cat0808'
p384
g73
sS'cat0212'
p385
g61
sS'cat0213'
p386
g61
sS'cat0210'
p387
g61
sS'cat0211'
p388
g61
sS'cat0195'
p389
S'ah'
p390
sS'cat0194'
p391
g390
sS'cat0197'
p392
g390
sS'cat0196'
p393
g390
sS'cat0191'
p394
S'ag'
p395
sS'cat0190'
p396
g395
sS'cat0193'
p397
g390
sS'cat0219'
p398
g61
sS'cat0823'
p399
g277
sS'cat0049'
p400
S'k'
sS'cat0359'
p401
g185
sS'cat0358'
p402
g185
sS'cat0357'
p403
g185
sS'cat0356'
p404
g161
sS'cat0355'
p405
g161
sS'cat0048'
p406
S'k'
sS'cat0353'
p407
g161
sS'cat0449'
p408
S'av2Fiii'
p409
sS'cat0351'
p410
S'as3'
p411
sS'cat0350'
p412
g411
sS'cat0429'
p413
S'av2Fii'
p414
sS'cat0811'
p415
g73
sS'cat0812'
p416
g73
sS'cat0813'
p417
g73
sS'cat0814'
p418
g73
sS'cat0815'
p419
g73
sS'cat0816'
p420
g73
sS'cat0817'
p421
g73
sS'cat0818'
p422
g73
sS'cat0819'
p423
g73
sS'cat0437'
p424
S'av2Fiib'
p425
sS'cat0422'
p426
S'av2Fi'
p427
sS'cat0425'
p428
g427
sS'cat0424'
p429
g427
sS'cat0427'
p430
g427
sS'cat0426'
p431
g427
sS'cat0959'
p432
g103
sS'cat0958'
p433
g103
sS'cat0951'
p434
g37
sS'cat0950'
p435
g37
sS'cat0953'
p436
g103
sS'cat0952'
p437
g37
sS'cat0955'
p438
g103
sS'cat0954'
p439
g103
sS'cat0957'
p440
g103
sS'cat0956'
p441
g103
sS'cat0933'
p442
g221
sS'cat0189'
p443
g395
sS'cat0932'
p444
g221
sS'cat0687'
p445
g214
sS'cat0102'
p446
S't'
sS'cat0103'
p447
S't'
sS'cat0100'
p448
S't'
sS'cat0101'
p449
S't'
sS'cat0106'
p450
S'u'
sS'cat0419'
p451
g275
sS'cat0104'
p452
S't'
sS'cat0105'
p453
S't'
sS'cat0266'
p454
g317
sS'cat0528'
p455
S'24'
p456
sS'cat0108'
p457
S'u'
sS'cat0281'
p458
g6
sS'cat0937'
p459
g221
sS'cat0113'
p460
S'u'
sS'cat0529'
p461
g456
sS'cat0967'
p462
g94
sS'cat0935'
p463
g221
sS'cat0934'
p464
g221
sS'cat0478'
p465
S'19'
p466
sS'cat0524'
p467
g50
sS'cat0479'
p468
g466
sS'cat0833'
p469
S'bn'
p470
sS'cat0021'
p471
S'g'
sS'cat0408'
p472
g87
sS'cat0526'
p473
g456
sS'cat0020'
p474
S'g'
sS'cat0831'
p475
g470
sS'cat847.a'
p476
g266
sS'cat0520'
p477
g50
sS'cat0009'
p478
S'e'
sS'cat0688'
p479
g214
sS'cat0775'
p480
g293
sS'cat0774'
p481
g380
sS'cat0777'
p482
g293
sS'cat0776'
p483
g293
sS'cat0771'
p484
g380
sS'cat0834'
p485
g470
sS'cat0773'
p486
g380
sS'cat0772'
p487
g380
sS'cat0523'
p488
g50
sS'cat0779'
p489
g293
sS'cat0778'
p490
g293
sS'cat0177'
p491
S'ac'
p492
sS'cat0176'
p493
g492
sS'cat0175'
p494
g492
sS'cat0174'
p495
g110
sS'cat0173'
p496
g110
sS'cat0172'
p497
g110
sS'cat0078'
p498
S'p'
sS'cat0079'
p499
S'p'
sS'cat0076'
p500
S'p'
sS'cat0077'
p501
S'p'
sS'cat0074'
p502
S'o'
sS'cat0075'
p503
S'p'
sS'cat0072'
p504
S'o'
sS'cat0073'
p505
S'o'
sS'cat0070'
p506
S'n'
sS'cat0028'
p507
S'j'
sS'cat0268'
p508
g317
sS'cat016.a'
p509
S'f'
sS'cat401.a'
p510
g243
sS'cat0260'
p511
S'am'
p512
sS'cat0618'
p513
S'bc'
p514
sS'cat0619'
p515
g514
sS'cat0612'
p516
g163
sS'cat0613'
p517
g163
sS'cat0610'
p518
g163
sS'cat0611'
p519
g163
sS'cat0616'
p520
S'bb'
p521
sS'cat0617'
p522
g521
sS'cat0614'
p523
g163
sS'cat0615'
p524
g521
sS'cat0621'
p525
S'bd'
p526
sS'cat0902'
p527
g45
sS'cat0620'
p528
g526
sS'cat983.a'
p529
S'cc'
p530
sS'cat0903'
p531
g45
sS'cat0900'
p532
g45
sS'cat356.a'
p533
g161
sS'cat0313'
p534
g6
sS'cat0312'
p535
g6
sS'cat0258'
p536
g512
sS'cat0901'
p537
g45
sS'cat0317'
p538
g345
sS'cat0316'
p539
g345
sS'cat0315'
p540
g6
sS'cat0314'
p541
g6
sS'cat0252'
p542
g512
sS'cat0670'
p543
S'be2'
p544
sS'cat0319'
p545
g345
sS'cat0318'
p546
g345
sS'cat0256'
p547
g512
sS'cat0257'
p548
g512
sS'cat0254'
p549
g512
sS'cat0671'
p550
g544
sS'cat0506'
p551
g92
sS'cat0507'
p552
g92
sS'cat0504'
p553
g194
sS'cat0505'
p554
g92
sS'cat0502'
p555
g194
sS'cat0503'
p556
g194
sS'cat0500'
p557
g194
sS'cat0501'
p558
g194
sS'cat0465'
p559
g32
sS'cat0464'
p560
g32
sS'cat0467'
p561
S'18'
p562
sS'cat0905'
p563
g45
sS'cat0461'
p564
g32
sS'cat0629'
p565
g526
sS'cat0463'
p566
g32
sS'cat0462'
p567
g32
sS'cat0628'
p568
g526
sS'cat0919'
p569
g43
sS'cat0918'
p570
g43
sS'cat0669'
p571
g544
sS'cat0668'
p572
g544
sS'cat0915'
p573
S'bu'
p574
sS'cat0914'
p575
g574
sS'cat0917'
p576
g43
sS'cat0916'
p577
g43
sS'cat0911'
p578
S'bt'
p579
sS'cat0910'
p580
g579
sS'cat0913'
p581
g579
sS'cat0912'
p582
g579
sS'cat0836'
p583
g470
sS'cat777.a'
p584
g293
sS'cat0229'
p585
S'aj1'
p586
sS'cat0228'
p587
g586
sS'cat0227'
p588
g586
sS'cat0226'
p589
g586
sS'cat0225'
p590
g586
sS'cat0224'
p591
g586
sS'cat0223'
p592
g586
sS'cat0222'
p593
g586
sS'cat0221'
p594
g586
sS'cat0220'
p595
g586
sS'cat0388'
p596
g158
sS'cat0389'
p597
g158
sS'cat0352'
p598
g161
sS'cat0380'
p599
g368
sS'cat0381'
p600
g368
sS'cat0382'
p601
g158
sS'cat0383'
p602
g158
sS'cat0384'
p603
g158
sS'cat0385'
p604
g158
sS'cat0386'
p605
g158
sS'cat0387'
p606
g158
sS'cat0869'
p607
g261
sS'cat0868'
p608
g261
sS'cat0980'
p609
g530
sS'cat0981'
p610
g530
sS'cat0986'
p611
g530
sS'cat0987'
p612
S'cd'
p613
sS'cat0984'
p614
g530
sS'cat0985'
p615
g530
sS'cat0861'
p616
g261
sS'cat0860'
p617
g261
sS'cat0863'
p618
g261
sS'cat0862'
p619
g261
sS'cat0865'
p620
g261
sS'cat0864'
p621
g261
sS'cat0867'
p622
g261
sS'cat0866'
p623
g261
sS'cat0521'
p624
g50
sS'cat0032'
p625
S'j1'
p626
sS'cat0033'
p627
S'j2'
p628
sS'cat0030'
p629
S'j'
sS'cat0031'
p630
g626
sS'cat0036'
p631
S'j3'
p632
sS'cat0037'
p633
S'k'
sS'cat0034'
p634
g628
sS'cat0035'
p635
g632
sS'cat0038'
p636
S'k'
sS'cat0039'
p637
S'k'
sS'cat0170'
p638
g110
sS'cat0584'
p639
g340
sS'cat0139'
p640
S'w'
sS'cat0138'
p641
S'w'
sS'cat0133'
p642
S'v1'
p643
sS'cat0132'
p644
g643
sS'cat0131'
p645
S'v'
sS'cat0130'
p646
S'v'
sS'cat0137'
p647
S'w'
sS'cat0136'
p648
S'w'
sS'cat0135'
p649
g643
sS'cat0134'
p650
g643
sS'cat0487'
p651
g194
sS'cat0486'
p652
g194
sS'cat0485'
p653
g194
sS'cat0484'
p654
g194
sS'cat0483'
p655
g194
sS'cat0482'
p656
g194
sS'cat0481'
p657
g194
sS'cat0480'
p658
g194
sS'cat0489'
p659
g194
sS'cat0488'
p660
g194
sS'cat0179'
p661
g241
sS'cat0171'
p662
g110
sS'cat0927'
p663
g57
sS'cat0308'
p664
g6
sS'cat0582'
p665
g340
sS'cat0047'
p666
S'k'
sS'cat514.a'
p667
g226
sS'cat0045'
p668
S'k'
sS'cat0044'
p669
S'k'
sS'cat0043'
p670
S'k'
sS'cat0042'
p671
S'k'
sS'cat0728'
p672
S'bi'
p673
sS'cat0729'
p674
g324
sS'cat0726'
p675
g673
sS'cat0727'
p676
g673
sS'cat0724'
p677
g673
sS'cat0725'
p678
g673
sS'cat0722'
p679
g673
sS'cat0723'
p680
g673
sS'cat0720'
p681
g673
sS'cat0721'
p682
g673
sS'cat0583'
p683
g340
sS'cat817.a'
p684
g73
sS'cat0310'
p685
g6
sS'cat0262'
p686
g512
sS'cat0255'
p687
g512
sS'cat0466'
p688
g32
sS'cat0261'
p689
g512
sS'cat0623'
p690
g526
sS'cat0622'
p691
g526
sS'cat0548'
p692
g456
sS'cat0549'
p693
g456
sS'cat0627'
p694
g526
sS'cat0626'
p695
g526
sS'cat0625'
p696
g526
sS'cat0624'
p697
g526
sS'cat0542'
p698
g456
sS'cat0543'
p699
g456
sS'cat0540'
p700
g456
sS'cat0541'
p701
g456
sS'cat0546'
p702
g456
sS'cat0547'
p703
g456
sS'cat0544'
p704
g456
sS'cat0545'
p705
g456
sS'cat0376'
p706
g372
sS'cat0921'
p707
g43
sS'cat0182'
p708
g112
sS'cat175.a'
p709
g492
sS'cat0183'
p710
S'af'
p711
sS'cat0269'
p712
g317
sS'cat0263'
p713
g512
sS'cat954.a'
p714
g103
sS'cat0188'
p715
g395
sS'cat0181'
p716
g112
sS'cat0267'
p717
g317
sS'cat0597'
p718
S'az3'
p719
sS'cat0265'
p720
g317
sS'cat0264'
p721
g317
sS'cat0460'
p722
g32
sS'cat0186'
p723
g395
sS'cat0180'
p724
g112
sS'cat0596'
p725
g719
sS'cat40.a'
p726
S'k'
sS'cat0187'
p727
g395
sS'cat0184'
p728
g711
sS'cat0185'
p729
g711
sS'cat0436'
p730
g425
sS'cat0599'
p731
g719
sS'cat0434'
p732
S'av2Fiia'
p733
sS'cat0875'
p734
S'br'
p735
sS'cat0348'
p736
g411
sS'cat0349'
p737
g411
sS'cat0430'
p738
g414
sS'cat0431'
p739
g414
sS'cat0344'
p740
g3
sS'cat0345'
p741
g3
sS'cat0346'
p742
g3
sS'cat0347'
p743
g411
sS'cat0340'
p744
g3
sS'cat0341'
p745
g3
sS'cat0342'
p746
g3
sS'cat0343'
p747
g3
sS'cat0946'
p748
g37
sS'cat0947'
p749
g37
sS'cat0944'
p750
g37
sS'cat0945'
p751
g37
sS'cat0829'
p752
g470
sS'cat0828'
p753
g470
sS'cat0539'
p754
g456
sS'cat0538'
p755
g456
sS'cat0537'
p756
g456
sS'cat0536'
p757
g456
sS'cat0535'
p758
g456
sS'cat0534'
p759
g456
sS'cat0533'
p760
g456
sS'cat0532'
p761
g456
sS'cat0531'
p762
g456
sS'cat0530'
p763
g456
sS'cat0435'
p764
g425
sS'cat0321'
p765
g13
sS'cat0406'
p766
g87
sS'cat0432'
p767
g414
sS'cat0150'
p768
S'y'
sS'cat914.a'
p769
g574
sS'cat0433'
p770
g414
sS'cat0982'
p771
g530
sS'cat0311'
p772
g6
sS'cat0259'
p773
g512
sS'cat0401'
p774
g243
sS'cat0400'
p775
g243
sS'cat0438'
p776
g425
sS'cat0253'
p777
g512
sS'cat768.a'
p778
g380
sS'cat0439'
p779
g425
sS'cat0250'
p780
g512
sS'cat0061'
p781
S'm'
sS'cat0251'
p782
g512
sS'cat0926'
p783
g57
sS'cat0060'
p784
S'm'
sS'cat132.a'
p785
g643
sS'cat0762'
p786
S'32'
p787
sS'cat0763'
p788
g787
sS'cat0760'
p789
g787
sS'cat0761'
p790
g787
sS'cat0766'
p791
g787
sS'cat0767'
p792
g787
sS'cat0764'
p793
g787
sS'cat0765'
p794
g787
sS'cat465.a'
p795
g32
sS'cat0942'
p796
g37
sS'cat0768'
p797
g380
sS'cat0769'
p798
g380
sS'cat0158'
p799
S'aa'
p800
sS'cat0943'
p801
g37
sS'cat0164'
p802
g110
sS'cat0165'
p803
g110
sS'cat0166'
p804
g110
sS'cat0008'
p805
S'd2'
p806
sS'cat0160'
p807
g800
sS'cat0940'
p808
g37
sS'cat0162'
p809
g110
sS'cat0163'
p810
g110
sS'cat0003'
p811
S'b'
sS'cat0002'
p812
S'a'
sS'cat0001'
p813
S'a'
sS'cat0941'
p814
g37
sS'cat0007'
p815
S'd1'
p816
sS'cat0169'
p817
g110
sS'cat0005'
p818
S'c'
sS'cat0004'
p819
S'b'
sS'cat0069'
p820
S'n'
sS'cat0068'
p821
S'n'
sS'cat0469'
p822
g562
sS'cat0827'
p823
g470
sS'cat0468'
p824
g562
sS'cat0826'
p825
g277
sS'cat0821'
p826
g277
sS'cat0820'
p827
g277
sS'cat0948'
p828
g37
sS'cat0949'
p829
g37
sS'cat0717'
p830
g673
sS'cat0716'
p831
g673
sS'cat0715'
p832
g673
sS'cat0714'
p833
g673
sS'cat0713'
p834
g673
sS'cat0712'
p835
g673
sS'cat0711'
p836
g673
sS'cat0710'
p837
g673
sS'cat0448'
p838
g409
sS'cat0719'
p839
g673
sS'cat0718'
p840
g673
sS'cat0215'
p841
g61
sS'cat0508'
p842
g92
sS'cat0509'
p843
g92
sS'cat0300'
p844
g6
sS'cat0018'
p845
S'g'
sS'cat0302'
p846
g6
sS'cat0303'
p847
g6
sS'cat0304'
p848
g6
sS'cat0305'
p849
g6
sS'cat0306'
p850
g6
sS'cat0307'
p851
g6
sS'cat0071'
p852
S'n'
sS'cat0309'
p853
g6
sS'cat0651'
p854
g29
sS'cat0747'
p855
g101
sS'cat0573'
p856
g18
sS'cat0572'
p857
g18
sS'cat0571'
p858
g18
sS'cat0570'
p859
g18
sS'cat0577'
p860
g18
sS'cat0576'
p861
g18
sS'cat0575'
p862
g18
sS'cat0574'
p863
g18
sS'cat0472'
p864
g309
sS'cat0473'
p865
g309
sS'cat0579'
p866
g18
sS'cat0578'
p867
g18
sS'cat0476'
p868
g466
sS'cat0477'
p869
g466
sS'cat0474'
p870
g309
sS'cat0475'
p871
g309
sS'cat0822'
p872
g277
sS'cat0908'
p873
g579
sS'cat0909'
p874
g579
sS'cat0678'
p875
S'bf'
p876
sS'cat0679'
p877
g876
sS'cat0657'
p878
g29
sS'cat0674'
p879
g876
sS'cat0675'
p880
g876
sS'cat0676'
p881
g876
sS'cat0677'
p882
g876
sS'cat0906'
p883
g579
sS'cat0907'
p884
g579
sS'cat0904'
p885
g45
sS'cat0673'
p886
g876
sS'cat0667'
p887
g544
sS'cat0666'
p888
g544
sS'cat0559'
p889
g321
sS'cat0665'
p890
g544
sS'cat0550'
p891
g321
sS'cat0558'
p892
g321
sS'cat0889'
p893
g45
sS'cat0888'
p894
g45
sS'cat0883'
p895
g735
sS'cat0882'
p896
g735
sS'cat0881'
p897
g735
sS'cat0880'
p898
g735
sS'cat0887'
p899
g735
sS'cat0886'
p900
g735
sS'cat0885'
p901
g735
sS'cat0884'
p902
g735
sS'cat0238'
p903
S'aj2'
p904
sS'cat0239'
p905
g904
sS'cat0234'
p906
g904
sS'cat0235'
p907
g904
sS'cat0236'
p908
g904
sS'cat0237'
p909
g904
sS'cat0230'
p910
g586
sS'cat0231'
p911
g586
sS'cat0232'
p912
g586
sS'cat0233'
p913
g586
sS'cat0876'
p914
g735
sS'cat0877'
p915
g735
sS'cat0874'
p916
g735
sS'cat615.a'
p917
g521
sS'cat0872'
p918
S'bq'
p919
sS'cat0873'
p920
g735
sS'cat0870'
p921
g919
sS'cat0871'
p922
g919
sS'cat0407'
p923
g87
sS'cat0551'
p924
g321
sS'cat0405'
p925
S'av2Ei'
p926
sS'cat0404'
p927
g926
sS'cat0403'
p928
g926
sS'cat0402'
p929
g926
sS'cat0878'
p930
g735
sS'cat0879'
p931
g735
sS'cat0010'
p932
S'e'
sS'cat0553'
p933
g321
sS'cat0979'
p934
g530
sS'cat0978'
p935
S'cb'
p936
sS'cat0977'
p937
g936
sS'cat0976'
p938
g936
sS'cat0975'
p939
g94
sS'cat0974'
p940
g94
sS'cat0973'
p941
g94
sS'cat0972'
p942
g94
sS'cat0971'
p943
g94
sS'cat0970'
p944
g94
sS'cat216.a'
p945
g61
sS'cat609.a'
p946
g163
sS'cat0280'
p947
g6
sS'cat0989'
p948
g613
sS'cat0011'
p949
S'e'
sS'cat0128'
p950
S'v'
sS'cat0129'
p951
S'v'
sS'cat0283'
p952
g6
sS'cat0282'
p953
g6
sS'cat0285'
p954
g6
sS'cat0284'
p955
g6
sS'cat0287'
p956
g6
sS'cat0286'
p957
g6
sS'cat0120'
p958
S'v'
sS'cat0121'
p959
S'v'
sS'cat0122'
p960
S'v'
sS'cat0123'
p961
S'v'
sS'cat0124'
p962
S'v'
sS'cat0661'
p963
g29
sS'cat0126'
p964
S'v'
sS'cat0598'
p965
g719
sS'cat0494'
p966
g194
sS'cat0495'
p967
g194
sS'cat0496'
p968
g194
sS'cat0497'
p969
g194
sS'cat0490'
p970
g194
sS'cat0491'
p971
g194
sS'cat0492'
p972
g194
sS'cat0493'
p973
g194
sS'cat0498'
p974
g194
sS'cat0499'
p975
g194
sS'cat0199'
p976
g390
sS'cat0249'
p977
g190
sS'cat0125'
p978
S'v'
sS'cat0156'
p979
S'z'
sS'cat0127'
p980
S'v'
sS'cat0054'
p981
S'l'
sS'cat0055'
p982
S'l'
sS'cat0056'
p983
S'l'
sS'cat0057'
p984
S'l'
sS'cat0050'
p985
S'l'
sS'cat0051'
p986
S'l'
sS'cat0052'
p987
S'l'
sS'cat0053'
p988
S'l'
sS'cat0753'
p989
g101
sS'cat0752'
p990
g101
sS'cat0751'
p991
g101
sS'cat0750'
p992
g101
sS'cat0757'
p993
g101
sS'cat0756'
p994
g101
sS'cat0755'
p995
g101
sS'cat0754'
p996
g101
sS'cat108.a'
p997
S'u'
sS'cat0630'
p998
g526
sS'cat0631'
p999
g29
sS'cat0632'
p1000
g29
sS'cat0633'
p1001
g29
sS'cat0634'
p1002
g29
sS'cat0635'
p1003
g29
sS'cat0636'
p1004
g29
sS'cat0637'
p1005
g29
sS'cat0638'
p1006
g29
sS'cat0839'
p1007
g470
sS'cat100.a'
p1008
S't'
sS'cat0938'
p1009
g221
sS'cat0672'
p1010
g544
sS'cat0270'
p1011
g317
sS'cat0271'
p1012
g317
sS'cat0272'
p1013
g317
sS'cat0248'
p1014
g190
sS'cat0274'
p1015
S'ao'
p1016
sS'cat0275'
p1017
g1016
sS'cat0276'
p1018
S'ap'
p1019
sS'cat0277'
p1020
g1019
sS'cat0278'
p1021
g6
sS'cat0279'
p1022
g6
sS'cat0443'
p1023
g409
sS'cat0442'
p1024
g409
sS'cat0441'
p1025
g409
sS'cat0440'
p1026
g425
sS'cat0447'
p1027
g409
sS'cat0446'
p1028
g409
sS'cat0445'
p1029
g409
sS'cat0444'
p1030
g409
sS'cat0371'
p1031
g180
sS'cat0370'
p1032
g180
sS'cat0373'
p1033
g180
sS'cat0372'
p1034
g180
sS'cat0375'
p1035
g372
sS'cat0374'
p1036
g180
sS'cat0377'
p1037
g372
sS'cat0198'
p1038
g390
sS'cat0685'
p1039
g214
sS'cat0684'
p1040
g214
sS'cat0838'
p1041
g470
sS'cat0686'
p1042
g214
sS'cat0681'
p1043
g214
sS'cat0680'
p1044
g214
sS'cat0683'
p1045
g214
sS'cat0682'
p1046
g214
sS'cat0832'
p1047
g470
sS'cat0525'
p1048
g456
sS'cat0830'
p1049
g470
sS'cat0527'
p1050
g456
sS'cat0689'
p1051
g214
sS'cat0837'
p1052
g470
sS'cat0522'
p1053
g50
sS'cat0835'
p1054
g470
sS'cat252.a'
p1055
g512
sS'cat426.a'
p1056
g427
sS'cat0931'
p1057
g221
sS'cat0083'
p1058
S'q'
sS'cat0082'
p1059
S'q'
sS'cat0081'
p1060
S'q'
sS'cat0080'
p1061
S'q'
sS'cat0087'
p1062
S's'
sS'cat0086'
p1063
S'r'
sS'cat0085'
p1064
S'r'
sS'cat0084'
p1065
S'r'
sS'cat0089'
p1066
S's'
sS'cat0088'
p1067
S's'
sS'cat0058'
p1068
S'm'
sS'cat0930'
p1069
g221
sS'cat0192'
p1070
g390
sS'cat0664'
p1071
g544
sS'cat408.a'
p1072
g87
sS'cat0591'
p1073
g719
sS'cat0590'
p1074
g719
sS'cat0593'
p1075
g719
sS'cat0592'
p1076
g719
sS'cat0595'
p1077
g719
sS'cat0594'
p1078
g719
sS'cat0849'
p1079
g266
sS'cat0848'
p1080
g266
sS'cat0847'
p1081
g266
sS'cat0846'
p1082
g266
sS'cat0845'
p1083
g266
sS'cat0844'
p1084
g470
sS'cat0843'
p1085
g470
sS'cat0842'
p1086
g470
sS'cat0841'
p1087
g470
sS'cat0840'
p1088
g470
sS'cat0663'
p1089
g29
sS'cat0936'
p1090
g221
sS'cat0799'
p1091
g313
sS'cat0798'
p1092
g313
sS'cat0797'
p1093
g313
sS'cat0796'
p1094
g313
sS'cat0795'
p1095
g313
sS'cat0794'
p1096
g313
sS'cat0793'
p1097
g284
sS'cat0792'
p1098
g284
sS'cat0791'
p1099
g284
sS'cat0790'
p1100
g284
sS'cat0151'
p1101
S'y1'
p1102
sS'cat0019'
p1103
S'g'
sS'cat0153'
p1104
S'z'
sS'cat0152'
p1105
S'y2'
p1106
sS'cat0155'
p1107
S'z'
sS'cat0154'
p1108
S'z'
sS'cat0157'
p1109
g800
sS'cat0983'
p1110
g530
sS'cat0159'
p1111
g800
sS'cat0662'
p1112
g29
sS'cat0012'
p1113
S'e'
sS'cat0013'
p1114
S'e'
sS'cat0014'
p1115
S'e'
sS'cat0015'
p1116
S'e'
sS'cat0016'
p1117
S'f'
sS'cat0017'
p1118
S'g'
sS'cat392.a'
p1119
g246
sS'cat392.b'
p1120
g246
sS'cat0810'
p1121
g73
sS'cat0246'
p1122
g190
sS'cat0301'
p1123
g6
sS'cat0428'
p1124
g414
sS'cat0759'
p1125
g101
sS'cat0758'
p1126
g101
sS'cat0243'
p1127
g196
sS'cat0242'
p1128
g196
sS'cat0988'
p1129
g613
sS'cat527.a'
p1130
g456
sS'cat0704'
p1131
g673
sS'cat0705'
p1132
g673
sS'cat0706'
p1133
g673
sS'cat0707'
p1134
g673
sS'cat0700'
p1135
g47
sS'cat0701'
p1136
g47
sS'cat0702'
p1137
g47
sS'cat0703'
p1138
g47
sS'cat0289'
p1139
g6
sS'cat0708'
p1140
g673
sS'cat0709'
p1141
g673
sS'cat0421'
p1142
g427
sS'cat0420'
p1143
g427
sS'cat0423'
p1144
g427
s.