(dp1
S'cat0372'
p2
S'au2'
p3
sS'cat0756'
p4
S'31'
p5
sS'cat0339'
p6
S'as2'
p7
sS'cat0338'
p8
g7
sS'cat0335'
p9
S'as1'
p10
sS'cat0334'
p11
g10
sS'cat0337'
p12
g7
sS'cat0336'
p13
g10
sS'cat0331'
p14
S'ar'
p15
sS'cat0330'
p16
g15
sS'cat0333'
p17
g10
sS'cat0332'
p18
g15
sS'cat0560'
p19
S'az1'
p20
sS'cat0561'
p21
g20
sS'cat0562'
p22
g20
sS'cat0563'
p23
g20
sS'cat0564'
p24
g20
sS'cat0565'
p25
g20
sS'cat0566'
p26
g20
sS'cat0567'
p27
g20
sS'cat0568'
p28
g20
sS'cat0569'
p29
g20
sS'c1'
p30
S'c'
sS'cat0649'
p31
S'be1'
p32
sS'cat0648'
p33
g32
sS'cat0769'
p34
S'33'
p35
sS'cat0641'
p36
g32
sS'cat0640'
p37
g32
sS'cat0643'
p38
g32
sS'cat0642'
p39
g32
sS'cat0645'
p40
g32
sS'cat0644'
p41
g32
sS'cat0647'
p42
g32
sS'cat0646'
p43
g32
sS'av'
p44
S'15'
p45
sS'cat0188'
p46
S'ag'
p47
sS'cat0898'
p48
S'bs'
p49
sS'cat0519'
p50
S'23'
p51
sS'cat40.a'
p52
S'k'
sS'cat0693'
p53
S'bh'
p54
sS'cat0890'
p55
g49
sS'cat0891'
p56
g49
sS'cat0892'
p57
g49
sS'cat0893'
p58
g49
sS'cat0894'
p59
g49
sS'cat0895'
p60
g49
sS'cat0896'
p61
g49
sS'cat0897'
p62
g49
sS'cat0209'
p63
S'ai'
p64
sS'cat0208'
p65
g64
sS'cat0923'
p66
S'bw'
p67
sS'cat0201'
p68
g64
sS'cat0200'
p69
g64
sS'cat0203'
p70
g64
sS'cat0202'
p71
g64
sS'cat0205'
p72
g64
sS'cat0204'
p73
g64
sS'cat0207'
p74
g64
sS'cat0206'
p75
g64
sS'cat0803'
p76
S'bm'
p77
sS'cat0802'
p78
g77
sS'cat0801'
p79
g77
sS'cat0800'
p80
g77
sS'cat0807'
p81
g77
sS'cat0806'
p82
g77
sS'cat0805'
p83
g77
sS'cat0804'
p84
g77
sS'cat0414'
p85
S'av2Eiii'
p86
sS'cat0415'
p87
g86
sS'cat0416'
p88
g86
sS'cat0417'
p89
g86
sS'cat0410'
p90
S'av2Eii'
p91
sS'cat0411'
p92
g91
sS'cat0412'
p93
g91
sS'cat0413'
p94
g86
sS'au1'
p95
S'au'
p96
sS'p'
S'4'
sS'au2'
p97
g96
sS'cat0968'
p98
S'ca'
p99
sS'cat0969'
p100
g99
sS'cat0842'
p101
S'bn'
p102
sS'cat0510'
p103
S'ax'
p104
sS'cat0964'
p105
g99
sS'cat0965'
p106
g99
sS'cat0966'
p107
g99
sS'cat0967'
p108
g99
sS'cat0960'
p109
S'bz'
p110
sS'cat0961'
p111
g110
sS'cat0962'
p112
g110
sS'cat0963'
p113
g99
sS'cat0083'
p114
S'q'
sS'cat0976'
p115
S'cb'
p116
sS'cat0699'
p117
g54
sS'cat0007'
p118
S'd1'
p119
sS'cat180.a'
p120
S'ae'
p121
sS'cat0169'
p122
S'ab'
p123
sS'cat0115'
p124
S'u'
sS'cat0114'
p125
S'u'
sS'cat0117'
p126
S'v'
sS'cat0116'
p127
S'v'
sS'cat0111'
p128
S'u'
sS'cat0110'
p129
S'u'
sS'cat59.a'
p130
S'm'
sS'cat0112'
p131
S'u'
sS'n'
S'4'
sS'cat0119'
p132
S'v'
sS'cat0118'
p133
S'v'
sS'cat812.b'
p134
g77
sS'cat812.a'
p135
g77
sS'cat0298'
p136
S'aq'
p137
sS'cat0299'
p138
g137
sS'cat0296'
p139
g137
sS'cat0297'
p140
g137
sS'cat0294'
p141
g137
sS'cat0295'
p142
g137
sS'cat0292'
p143
g137
sS'cat0293'
p144
g137
sS'cat0290'
p145
g137
sS'cat0291'
p146
g137
sS'av2A'
p147
S'av2'
p148
sS'cat927.a'
p149
S'bw'
p150
sS'az'
p151
S'25'
p152
sS'cat0161'
p153
g123
sS'cat0690'
p154
S'bg'
p155
sS'cat464.a'
p156
S'17'
p157
sS'cat0019'
p158
S'g'
sS'cat0748'
p159
g5
sS'cat0749'
p160
g5
sS'cat0063'
p161
S'n'
sS'38'
p162
S'F'
sS'cat0065'
p163
S'n'
sS'cat0064'
p164
S'n'
sS'cat0067'
p165
S'n'
sS'cat0066'
p166
S'n'
sS'33'
p167
S'IV'
p168
sS'cat0741'
p169
g5
sS'k'
S'3'
sS'cat0743'
p170
g5
sS'37'
p171
S'F'
sS'36'
p172
S'F'
sS'35'
p173
S'F'
sS'cat901.a'
p174
g49
sS'bw'
p175
g162
sS'cat0847'
p176
S'bo'
p177
sS'bp'
p178
g172
sS'bq'
p179
g172
sS'cat388.a'
p180
S'av2B'
p181
sS'cat0578'
p182
g20
sS'br'
p183
g172
sS'cat0871'
p184
S'bq'
p185
sS'bs'
p186
g171
sS'cat0609'
p187
S'ba'
p188
sS'cat0608'
p189
g188
sS'cat0757'
p190
g5
sS'cat0605'
p191
g188
sS'cat0604'
p192
g188
sS'cat0607'
p193
g188
sS'cat0606'
p194
g188
sS'cat0601'
p195
g188
sS'cat0600'
p196
g188
sS'cat0603'
p197
g188
sS'cat0602'
p198
g188
sS'cat0537'
p199
S'24'
p200
sS'az3'
p201
g151
sS'6'
S'A'
sS'bu'
p202
g171
sS'i'
S'3'
sS'cat0482'
p203
S'20'
p204
sS'cat0366'
p205
g3
sS'cat0367'
p206
g3
sS'cat0364'
p207
g3
sS'cat0365'
p208
g3
sS'cat0362'
p209
S'au1'
p210
sS'cat0363'
p211
g210
sS'cat0360'
p212
g210
sS'cat0361'
p213
g210
sS'cat0245'
p214
S'al'
p215
sS'cat0244'
p216
g215
sS'av2Ei'
p217
S'av2E'
p218
sS'cat480.a'
p219
g204
sS'cat0241'
p220
S'ak'
p221
sS'cat0240'
p222
g221
sS'cat0368'
p223
g3
sS'cat0369'
p224
g3
sS'cat0450'
p225
S'16'
p226
sS'cat0451'
p227
g226
sS'cat0452'
p228
g226
sS'cat0453'
p229
g226
sS'cat0454'
p230
g226
sS'cat0455'
p231
g157
sS'cat0456'
p232
g157
sS'cat0457'
p233
g157
sS'cat0458'
p234
g157
sS'cat0459'
p235
g157
sS'cat0920'
p236
S'bv'
p237
sS'cat0518'
p238
g51
sS'cat0922'
p239
g67
sS'cat0691'
p240
g155
sS'cat0696'
p241
g54
sS'cat0697'
p242
g54
sS'cat0694'
p243
g54
sS'f'
S'2'
sS'cat0511'
p244
g104
sS'cat0929'
p245
S'bx'
p246
sS'cat0513'
p247
g104
sS'cat0512'
p248
g104
sS'cat0515'
p249
S'22'
p250
sS'cat0514'
p251
g250
sS'cat0517'
p252
g51
sS'cat0516'
p253
g51
sS'v'
S'6'
sS'cat0090'
p254
S's'
sS'cat0091'
p255
S's'
sS'cat0092'
p256
S's'
sS'cat0093'
p257
S's'
sS'cat0094'
p258
S's'
sS'cat0095'
p259
S's'
sS'cat0096'
p260
S's'
sS'cat0097'
p261
S's'
sS'cat0098'
p262
S's'
sS'cat0099'
p263
S's'
sS'av2Eiv'
p264
g218
sS'cat0870'
p265
g185
sS'cat0399'
p266
S'av2D'
p267
sS'cat0398'
p268
g267
sS'cat0048'
p269
S'k'
sS'cat0525'
p270
g200
sS'cat0393'
p271
S'av2C'
p272
sS'cat0392'
p273
g272
sS'cat0391'
p274
g272
sS'cat0390'
p275
g272
sS'cat0397'
p276
g272
sS'cat0396'
p277
g272
sS'cat0395'
p278
g272
sS'cat0394'
p279
g272
sS'1'
S'A'
sS'cat0994'
p280
S'ce'
p281
sS'cat0997'
p282
S'cf'
p283
sS'cat0996'
p284
g283
sS'cat0858'
p285
S'bp'
p286
sS'cat0859'
p287
g286
sS'cat0993'
p288
g281
sS'cat0992'
p289
g281
sS'cat0586'
p290
S'az2'
p291
sS'cat0855'
p292
g177
sS'cat0856'
p293
g177
sS'cat0857'
p294
g177
sS'cat0999'
p295
g283
sS'cat0998'
p296
g283
sS'cat0580'
p297
g291
sS'cat0581'
p298
g291
sS'A'
S'0'
sS'cat0025'
p299
S'i'
sS'cat0024'
p300
S'h'
sS'cat0027'
p301
S'j'
sS'cat0026'
p302
S'i'
sS'cat0788'
p303
S'bk'
p304
sS'cat0789'
p305
g304
sS'cat0023'
p306
S'h'
sS'cat0022'
p307
S'g'
sS'cat0784'
p308
g304
sS'cat0785'
p309
g304
sS'cat0786'
p310
g304
sS'cat0787'
p311
g304
sS'cat0029'
p312
S'j'
sS'cat0781'
p313
S'bj'
p314
sS'cat0782'
p315
g314
sS'cat0783'
p316
g304
sS'a'
S'1'
sS'34'
p317
g168
sS'aj'
p318
S'10'
p319
sS'I'
S'D'
sS'cat0148'
p320
S'x'
sS'cat0149'
p321
S'y'
sS'cat0146'
p322
S'x'
sS'cat0147'
p323
S'x'
sS'cat0144'
p324
S'x'
sS'cat0145'
p325
S'x'
sS'cat0142'
p326
S'x'
sS'cat0143'
p327
S'x'
sS'cat0140'
p328
S'x'
sS'cat0141'
p329
S'x'
sS'q'
S'4'
sS'F'
S'0'
sS'cat0879'
p330
S'br'
p331
sS'cat1000'
p332
g283
sS'cat799.b'
p333
S'bl'
p334
sS'cat799.a'
p335
g334
sS'cat0151'
p336
S'y1'
p337
sS'cat374.a'
p338
g3
sS'y1'
p339
S'y'
sS'cat0827'
p340
g102
sS'y2'
p341
S'y'
sS'24'
p342
S'II'
p343
sg152
g343
sS'26'
p344
S'III'
p345
sS'27'
p346
g345
sS'20'
p347
S'I'
sS'21'
p348
S'I'
sS'22'
p349
S'I'
sS'23'
p350
g343
sS'cat0739'
p351
g5
sS'cat0738'
p352
g5
sS'28'
p353
g345
sS'29'
p354
g345
sS'cat0848'
p355
g177
sS'cat0991'
p356
g281
sS'cat0526'
p357
g200
sS'cat0990'
p358
g281
sS'cat0328'
p359
g15
sS'cat0329'
p360
g15
sS'cat0588'
p361
g291
sS'cat514.a'
p362
g250
sS'cat0322'
p363
g15
sS'cat0323'
p364
g15
sS'cat0320'
p365
S'13'
p366
sS'cat0589'
p367
g291
sS'cat0326'
p368
g15
sS'cat0327'
p369
g15
sS'cat0324'
p370
g15
sS'cat0325'
p371
g15
sS'cat0656'
p372
g32
sS'cat0854'
p373
g177
sS'cat0654'
p374
g32
sS'cat0655'
p375
g32
sS'cat0652'
p376
g32
sS'cat0653'
p377
g32
sS'cat0650'
p378
g32
sS'cat0587'
p379
g291
sS'cat0555'
p380
S'ay'
p381
sS'cat0418'
p382
S'av2Eiv'
p383
sS'cat0557'
p384
g381
sS'cat0556'
p385
g381
sS'cat0551'
p386
g381
sS'cat604.a'
p387
g188
sS'cat0658'
p388
g32
sS'cat0552'
p389
g381
sS'cat0443'
p390
S'av2Fiii'
p391
sS'cat0585'
p392
g291
sS'cat0549'
p393
g200
sS'cat0728'
p394
S'bi'
p395
sS'cat0442'
p396
g391
sg345
S'E'
sS'cat0729'
p397
S'30'
p398
sS'l'
S'3'
sS'cat0851'
p399
g177
sS'av2Fii'
p400
S'av2F'
p401
sS'cat0440'
p402
S'av2Fiib'
p403
sS'cat0852'
p404
g177
sS'h'
S'2'
sS'cat0028'
p405
S'j'
sS'cat0853'
p406
g177
sS'cat0809'
p407
g77
sS'as3'
p408
S'as'
p409
sS'as2'
p410
g409
sS'as1'
p411
g409
sS'cat0808'
p412
g77
sS'cat0212'
p413
g64
sS'cat0213'
p414
g64
sS'cat0210'
p415
g64
sS'cat0211'
p416
g64
sS'cat0195'
p417
S'ah'
p418
sS'cat0194'
p419
g418
sS'cat0197'
p420
g418
sS'cat0196'
p421
g418
sS'cat0191'
p422
g47
sS'cat0190'
p423
g47
sS'cat0193'
p424
g418
sS'cat0219'
p425
g64
sS'cat0303'
p426
g137
sS'cat0720'
p427
g395
sS'cat0359'
p428
g210
sS'cat0358'
p429
g210
sS'cat0357'
p430
g210
sS'cat0356'
p431
S'at'
p432
sS'cat0355'
p433
g432
sS'cat0354'
p434
g432
sS'cat0353'
p435
g432
sS'cat0352'
p436
g432
sS'cat0351'
p437
S'as3'
p438
sS'cat0350'
p439
g438
sS'cat0429'
p440
S'av2Fii'
p441
sS'cat0811'
p442
g77
sS'cat0812'
p443
g77
sS'cat0813'
p444
g77
sS'cat0814'
p445
g77
sS'cat0815'
p446
g77
sS'cat0816'
p447
g77
sS'cat0817'
p448
g77
sS'cat0818'
p449
g77
sS'cat0819'
p450
g77
sS'cat0423'
p451
S'av2Fi'
p452
sS'cat0422'
p453
g452
sS'cat0425'
p454
g452
sS'cat0424'
p455
g452
sS'cat0427'
p456
g452
sS'cat0426'
p457
g452
sS'cat0959'
p458
g110
sS'cat0958'
p459
g110
sS'7'
S'A'
sS'cat0951'
p460
S'by'
p461
sS'cat0950'
p462
g461
sS'cat0953'
p463
g110
sS'cat0952'
p464
g461
sS'cat0955'
p465
g110
sS'cat0954'
p466
g110
sS'cat0957'
p467
g110
sS'cat0956'
p468
g110
sS'cat0709'
p469
g395
sS'cat0685'
p470
g155
sS'cat0684'
p471
g155
sS'cat0687'
p472
g155
sS'cat0102'
p473
S't'
sS'cat0103'
p474
S't'
sS'cat0100'
p475
S't'
sS'cat0101'
p476
S't'
sS'cat0106'
p477
S'u'
sS'cat0107'
p478
S'u'
sS'cat0104'
p479
S't'
sS'cat0105'
p480
S't'
sS'cat0681'
p481
g155
sS'cat0108'
p482
S'u'
sS'cat0109'
p483
S'u'
sS'cat0936'
p484
g246
sg343
S'D'
sS'cat0171'
p485
g123
sS'g'
S'2'
sS'v1'
p486
S'v'
sS'aj1'
p487
g318
sS'aj2'
p488
g318
sS'cat0170'
p489
g123
sS'cat0571'
p490
g20
sS'cat0832'
p491
g102
sS'cat0570'
p492
g20
sS'w'
S'6'
sS'cat0528'
p493
g200
sS'cat0021'
p494
S'g'
sS'cat0830'
p495
g102
sS'cat0669'
p496
S'be2'
p497
sS'cat0020'
p498
S'g'
sS'cat0938'
p499
g246
sS'cat847.a'
p500
g177
sS'cat0836'
p501
g102
sS'cat0837'
p502
g102
sS'cat0775'
p503
g314
sS'cat0774'
p504
g35
sS'cat0777'
p505
g314
sS'cat0776'
p506
g314
sS'cat0771'
p507
g35
sS'cat0770'
p508
g35
sS'cat0773'
p509
g35
sS'cat0772'
p510
g35
sS'cat0071'
p511
S'n'
sS'cat0779'
p512
g314
sS'cat0778'
p513
g314
sS'cat0177'
p514
S'ac'
p515
sS'cat0176'
p516
g515
sS'cat0175'
p517
g515
sS'cat0174'
p518
g123
sS'cat0173'
p519
g123
sS'cat0172'
p520
g123
sS'cat0078'
p521
S'p'
sS'cat0079'
p522
S'p'
sS'cat0076'
p523
S'p'
sS'cat0077'
p524
S'p'
sS'cat0074'
p525
S'o'
sS'cat0075'
p526
S'p'
sS'cat0072'
p527
S'o'
sS'cat0073'
p528
S'o'
sS'cat0070'
p529
S'n'
sS'cat0178'
p530
S'ad'
p531
sS'2'
S'A'
sS'cat016.a'
p532
S'f'
sS'cat0540'
p533
g200
sS'be2'
p534
S'be'
p535
sS'be1'
p536
g535
sS'cat401.a'
p537
g267
sS'av2Fiib'
p538
g400
sS'av2Fiia'
p539
g400
sS'cat0260'
p540
S'am'
p541
sS'av2Fiii'
p542
g401
sS'cat16.a'
p543
S'f'
sS'cat0618'
p544
S'bc'
p545
sS'cat0619'
p546
g545
sS'z'
S'8'
sS'cat0481'
p547
g204
sS'cat0731'
p548
g398
sS'cat0612'
p549
g188
sS'cat0613'
p550
g188
sS'cat0610'
p551
g188
sS'cat0611'
p552
g188
sS'cat0616'
p553
S'bb'
p554
sS'cat0617'
p555
g554
sS'cat0614'
p556
g188
sS'cat0615'
p557
g554
sS'11'
p558
S'B'
sg319
S'B'
sS'13'
p559
S'C'
sS'12'
p560
S'B'
sg45
S'C'
sS'14'
p561
S'C'
sS'17'
p562
S'I'
sS'16'
p563
S'I'
sS'19'
p564
S'I'
sS'18'
p565
S'I'
sS'cat0548'
p566
g200
sS'cat0674'
p567
S'bf'
p568
sS'r'
S'5'
sS'e'
S'2'
sS'cat983.a'
p569
S'cc'
p570
sS'cat0675'
p571
g568
sS'cat0676'
p572
g568
sS'cat0313'
p573
g137
sS'cat0312'
p574
g137
sS'cat0258'
p575
g541
sS'cat0310'
p576
g137
sS'cat0317'
p577
g366
sS'cat0113'
p578
S'u'
sS'cat0315'
p579
g137
sS'cat0314'
p580
g137
sS'cat0252'
p581
g541
sS'cat0253'
p582
g541
sS'cat0319'
p583
g366
sS'cat0318'
p584
g366
sS'cat0256'
p585
g541
sS'cat0257'
p586
g541
sS'cat0254'
p587
g541
sS'cat0255'
p588
g541
sS'cat0506'
p589
g104
sS'cat0507'
p590
g104
sS'cat0504'
p591
g204
sS'cat0505'
p592
g104
sS'cat0502'
p593
g204
sS'cat0503'
p594
g204
sS'cat0500'
p595
g204
sS'cat0501'
p596
g204
sS'cat0465'
p597
g157
sS'cat0464'
p598
g157
sS'cat0467'
p599
S'18'
p600
sS'cat0466'
p601
g157
sS'cat0461'
p602
g157
sS'cat0460'
p603
g157
sS'cat0463'
p604
g157
sS'cat0462'
p605
g157
sS'cat450.a'
p606
g226
sS'cat0541'
p607
g200
sS'cat0919'
p608
g237
sS'cat0918'
p609
g237
sS'cat0899'
p610
g49
sS'cat0668'
p611
g497
sS'cat0915'
p612
S'bu'
p613
sS'cat0914'
p614
g613
sS'cat0917'
p615
g237
sS'cat0916'
p616
g237
sS'cat0911'
p617
S'bt'
p618
sS'cat0662'
p619
g32
sS'cat0661'
p620
g32
sS'cat0660'
p621
g32
sS'cat0181'
p622
g121
sS'cat777.a'
p623
g314
sS'cat0229'
p624
S'aj1'
p625
sS'cat0228'
p626
g625
sS'cat0227'
p627
g625
sS'cat0226'
p628
g625
sS'cat0225'
p629
g625
sS'cat0224'
p630
g625
sS'cat0223'
p631
g625
sS'cat0222'
p632
g625
sS'cat0221'
p633
g625
sS'cat0220'
p634
g625
sS'cat0388'
p635
g181
sS'cat0389'
p636
g181
sS'cat0995'
p637
g283
sS'cat0520'
p638
g51
sS'cat0380'
p639
S'av2A'
p640
sS'cat0381'
p641
g640
sS'cat0695'
p642
g54
sS'cat0383'
p643
g181
sS'm'
S'4'
sS'cat0385'
p644
g181
sS'cat0386'
p645
g181
sS'cat0387'
p646
g181
sS'cat0869'
p647
g286
sS'cat0868'
p648
g286
sS'cat0980'
p649
g570
sS'cat0981'
p650
g570
sS'cat0986'
p651
g570
sS'cat0987'
p652
S'cd'
p653
sS'cat0984'
p654
g570
sS'cat0985'
p655
g570
sS'cat0861'
p656
g286
sS'cat0860'
p657
g286
sS'cat0863'
p658
g286
sS'cat0989'
p659
g653
sS'cat0865'
p660
g286
sS'cat0864'
p661
g286
sS'cat0867'
p662
g286
sS'cat0866'
p663
g286
sS'cat0373'
p664
g3
sS'cat0032'
p665
S'j1'
p666
sS'cat0033'
p667
S'j2'
p668
sS'cat0030'
p669
S'j'
sS'cat0031'
p670
g666
sS'cat0036'
p671
S'j3'
p672
sS'cat0037'
p673
S'k'
sS'cat0034'
p674
g668
sS'cat0035'
p675
g672
sS'cat0038'
p676
S'k'
sS'cat0039'
p677
S'k'
sS'd2'
p678
S'd'
sS'd1'
p679
S'd'
sS'cat0139'
p680
S'w'
sS'cat0138'
p681
S'w'
sS'cat0983'
p682
g570
sS'cat0133'
p683
S'v1'
p684
sS'cat0132'
p685
g684
sS'cat0131'
p686
S'v'
sS'cat0130'
p687
S'v'
sS'cat0137'
p688
S'w'
sS'cat0136'
p689
S'w'
sS'cat0135'
p690
g684
sS'cat0134'
p691
g684
sS'cat0487'
p692
g204
sS'cat0486'
p693
g204
sS'cat0485'
p694
g204
sS'cat0484'
p695
g204
sS'cat0483'
p696
g204
sS'cat737.b'
p697
g5
sS'cat737.a'
p698
g5
sS'cat0480'
p699
g204
sS'8'
S'A'
sS'cat0489'
p700
g204
sS'cat0488'
p701
g204
sS'c'
S'1'
sS'cat0179'
p702
g531
sS'cat0927'
p703
g67
sS'b'
S'1'
sS'cat0582'
p704
g291
sS'cat0047'
p705
S'k'
sS'cat0046'
p706
S'k'
sS'cat0045'
p707
S'k'
sS'cat0044'
p708
S'k'
sS'cat0043'
p709
S'k'
sS'cat0042'
p710
S'k'
sS'cat0041'
p711
S'k'
sS'cat0040'
p712
S'k'
sS'cat0726'
p713
g395
sS'cat0727'
p714
g395
sS'cat0724'
p715
g395
sS'cat0725'
p716
g395
sS'cat0722'
p717
g395
sS'cat0723'
p718
g395
sS'cat0049'
p719
S'k'
sS'cat0721'
p720
g395
sS'cat0780'
p721
g314
sS'x'
S'7'
sS'cat817.a'
p722
g77
sS'cat0239'
p723
S'aj2'
p724
sS'j'
S'3'
sS'cat0688'
p725
g155
sS'cat954.a'
p726
g110
sS'cat0419'
p727
g383
sS'j1'
p728
S'j'
sS'j2'
p729
S'j'
sS'j3'
p730
S'j'
sS'cat0623'
p731
S'bd'
p732
sS'cat0622'
p733
g732
sS'cat0621'
p734
g732
sS'cat0620'
p735
g732
sS'cat0627'
p736
g732
sS'cat0626'
p737
g732
sS'cat0625'
p738
g732
sS'cat0624'
p739
g732
sS'cat0542'
p740
g200
sS'cat0543'
p741
g200
sS'cat0629'
p742
g732
sS'cat0628'
p743
g732
sS'cat0546'
p744
g200
sS'cat0547'
p745
g200
sS'cat0544'
p746
g200
sS'cat0545'
p747
g200
sS'cat0237'
p748
g724
sS'cat0921'
p749
g237
sS'3'
S'A'
sS'cat0180'
p750
g121
sS'cat0263'
p751
g541
sS'cat0262'
p752
g541
sS'C'
S'0'
sS'cat0189'
p753
g47
sS'cat0267'
p754
S'an'
p755
sS'cat0266'
p756
g755
sS'cat0265'
p757
g755
sS'cat0264'
p758
g755
sS'cat0182'
p759
g121
sS'cat0183'
p760
S'af'
p761
sS'cat0269'
p762
g755
sS'cat0268'
p763
g755
sS'cat0186'
p764
g47
sS'cat0733'
p765
g398
sS'cat0184'
p766
g761
sS'cat0187'
p767
g47
sS'cat0436'
p768
g403
sS'cat0437'
p769
g403
sS'cat0434'
p770
S'av2Fiia'
p771
sS'cat0732'
p772
g398
sS'cat0348'
p773
g438
sS'cat0349'
p774
g438
sS'cat0430'
p775
g441
sS'cat0431'
p776
g441
sS'cat0344'
p777
g7
sS'cat0735'
p778
g398
sS'cat0346'
p779
g7
sS'cat0185'
p780
g761
sS'cat0340'
p781
g7
sS'cat0341'
p782
g7
sS'cat0342'
p783
g7
sS'cat0439'
p784
g403
sS'cat0946'
p785
g461
sS'cat0947'
p786
g461
sS'cat0944'
p787
g461
sS'cat0945'
p788
g461
sS'cat0829'
p789
g102
sS'cat0737'
p790
g5
sS'cat0539'
p791
g200
sS'cat0538'
p792
g200
sS'cat0825'
p793
S'35'
p794
sS'cat0824'
p795
g794
sS'cat0535'
p796
g200
sS'cat0826'
p797
g794
sS'cat0533'
p798
g200
sS'cat0820'
p799
g794
sS'cat0823'
p800
g794
sS'cat0949'
p801
g461
sS's'
S'5'
sS'cat0435'
p802
g403
sS'cat0432'
p803
g441
sS'cat914.a'
p804
g613
sS'cat0433'
p805
g441
sS'cat0982'
p806
g570
sS'cc'
p807
S'39'
p808
sS'cb'
p809
g808
sS'ca'
p810
g162
sS'cat0311'
p811
g137
sS'ce'
p812
g808
sS'cd'
p813
g808
sS'cat0259'
p814
g541
sS'cat0878'
p815
g331
sS'cat0345'
p816
g7
sS'cat0400'
p817
g267
sS'cat0670'
p818
g497
sS'cat0316'
p819
g366
sS'cat0347'
p820
g438
sS'cat0925'
p821
g67
sS'bt'
p822
g171
sS'cat0438'
p823
g403
sS'cat0522'
p824
g51
sS'av2Eiii'
p825
g218
sS'cat0343'
p826
g7
sS'cat0250'
p827
g541
sS'cat0061'
p828
S'm'
sS'cat0251'
p829
g541
sS'cat0926'
p830
g67
sS'cat0060'
p831
S'm'
sS'cat0978'
p832
g116
sg808
S'F'
sS'cat0762'
p833
S'32'
p834
sS'cat0763'
p835
g834
sS'cat0760'
p836
g834
sS'cat0062'
p837
S'n'
sS'cat0766'
p838
g834
sS'cat0767'
p839
g834
sS'cat0764'
p840
g834
sS'cat0765'
p841
g834
sS'cat465.a'
p842
g157
sS'cat0942'
p843
g461
sS'cat0768'
p844
g35
sS'cat465.b'
p845
g157
sS'cat0686'
p846
g155
sS'cat0943'
p847
g461
sS'cat0164'
p848
g123
sS'cat0165'
p849
g123
sS'cat0166'
p850
g123
sS'cat0167'
p851
g123
sS'cat0160'
p852
S'aa'
p853
sS'cat0940'
p854
g461
sS'cat0162'
p855
g123
sS'cat0163'
p856
g123
sS'cat0003'
p857
S'b'
sS'cat0002'
p858
S'a'
sS'cat0001'
p859
S'a'
sS'cat0941'
p860
g461
sS'cat0168'
p861
g123
sS'cat0006'
p862
S'c1'
p863
sS'cat0005'
p864
S'c'
sS'cat0004'
p865
S'b'
sS'cat0198'
p866
g418
sS'cat0069'
p867
S'n'
sS'32'
p868
g168
sS'cat0217'
p869
g64
sS'cat0469'
p870
g600
sS'cat0742'
p871
g5
sS'cat0734'
p872
g398
sS'cat0468'
p873
g600
sS'cat0928'
p874
g246
sS'30'
p875
g345
sS'aw'
p876
g565
sS'cat0744'
p877
g5
sS'cat0835'
p878
g102
sS'cat0532'
p879
g200
sS'cat0930'
p880
g246
sS'ay'
p881
g152
sS'cat0745'
p882
g5
sS'bg'
p883
g353
sS'cat0948'
p884
g461
sS'cat0632'
p885
g32
sS'cat0677'
p886
g568
sS'cat0068'
p887
S'n'
sS'cat0584'
p888
g291
sS'cat0717'
p889
g395
sS'cat0716'
p890
g395
sS'cat0715'
p891
g395
sS'cat0714'
p892
g395
sS'cat0713'
p893
g395
sS'cat0712'
p894
g395
sS'cat0711'
p895
g395
sS'cat0710'
p896
g395
sS'cat0698'
p897
g54
sS'cat0719'
p898
g395
sS'cat0718'
p899
g395
sS'cat0746'
p900
g5
sS'cat0508'
p901
g104
sS'9'
S'B'
sS'cat0509'
p902
g104
sS'cat0216'
p903
g64
sS'cat0846'
p904
g177
sS'cat0300'
p905
g137
sS'cat0301'
p906
g137
sS'av2Eii'
p907
g218
sS'cat0321'
p908
g15
sS'cat0304'
p909
g137
sS'cat0305'
p910
g137
sS'cat0306'
p911
g137
sS'cat0307'
p912
g137
sS'cat0308'
p913
g137
sS'cat0309'
p914
g137
sS'av1'
p915
g44
sg148
g44
sg168
S'E'
sS'cat0573'
p916
g20
sS'cat0572'
p917
g20
sS'cat0478'
p918
S'19'
p919
sS'cat0479'
p920
g919
sS'cat0577'
p921
g20
sS'cat0576'
p922
g20
sS'cat0575'
p923
g20
sS'cat0574'
p924
g20
sS'cat0472'
p925
S'aw'
p926
sS'cat0473'
p927
g926
sS'cat0470'
p928
g926
sS'cat0471'
p929
g926
sS'cat0476'
p930
g919
sS'cat0477'
p931
g919
sS'cat0474'
p932
g926
sS'cat0475'
p933
g926
sS'cat0822'
p934
g794
sS'cat0908'
p935
g618
sS'cat0909'
p936
g618
sS'cat0678'
p937
g568
sS'cat0679'
p938
g568
sS'cat0657'
p939
g32
sS'cat0902'
p940
g49
sS'cat0903'
p941
g49
sS'cat0900'
p942
g49
sS'cat0901'
p943
g49
sS'cat0261'
p944
g541
sS'cat0907'
p945
g618
sS'cat20.a'
p946
S'g'
sS'cat0905'
p947
g49
sS'cat0667'
p948
g497
sS'cat0666'
p949
g497
sS'y'
S'7'
sS'cat0559'
p950
g381
sS'cat0536'
p951
g200
sS'cat0665'
p952
g497
sS'cat0550'
p953
g381
sS'cat0558'
p954
g381
sS'cat0889'
p955
g49
sS'cat0888'
p956
g49
sS'cat108.a'
p957
S'u'
sS'cat0883'
p958
g331
sS'cat0882'
p959
g331
sS'cat0881'
p960
g331
sS'cat0651'
p961
g32
sS'cat0887'
p962
g331
sS'cat0886'
p963
g331
sS'cat0885'
p964
g331
sS'cat0884'
p965
g331
sS'cat0238'
p966
g724
sS'cat0913'
p967
g618
sS'ax'
p968
g348
sS'cat0554'
p969
g381
sS'cat0234'
p970
g724
sS'cat0235'
p971
g724
sS'cat0236'
p972
g724
sS'cat0912'
p973
g618
sS'cat0230'
p974
g625
sS'cat0231'
p975
g625
sS'cat0232'
p976
g625
sS'cat0233'
p977
g625
sS'cat0876'
p978
g331
sS'cat0877'
p979
g331
sS'cat0874'
p980
g331
sS'cat615.a'
p981
g554
sS'cat0872'
p982
g185
sS'cat0873'
p983
g331
sS'cat0409'
p984
g91
sS'cat0408'
p985
g91
sS'cat0407'
p986
g91
sS'cat0406'
p987
g91
sS'cat0405'
p988
S'av2Ei'
p989
sS'cat0404'
p990
g989
sS'cat0403'
p991
g989
sS'cat0402'
p992
g989
sS'cat0401'
p993
g267
sS'cat356.a'
p994
g432
sS'4'
S'A'
sS'cat0979'
p995
g570
sS'cat0534'
p996
g200
sS'cat0977'
p997
g116
sS'31'
p998
g168
sS'cat0975'
p999
g99
sS'cat0974'
p1000
g99
sS'cat0973'
p1001
g99
sS'cat0972'
p1002
g99
sS'cat0971'
p1003
g99
sS'cat0970'
p1004
g99
sS'cat0740'
p1005
g5
sS'cat216.a'
p1006
g64
sS'cat609.a'
p1007
g188
sS'D'
S'0'
sS'cat175.a'
p1008
g515
sS'cf'
p1009
g808
sS'cat0011'
p1010
S'e'
sS'd'
S'1'
sS'cat0281'
p1011
g137
sS'cat0280'
p1012
g137
sS'cat0283'
p1013
g137
sS'cat0282'
p1014
g137
sS'cat0285'
p1015
g137
sS'cat0284'
p1016
g137
sS'cat0287'
p1017
g137
sS'cat0286'
p1018
g137
sS'cat0120'
p1019
S'v'
sS'cat0121'
p1020
S'v'
sS'cat0122'
p1021
S'v'
sS'cat0008'
p1022
S'd2'
p1023
sS'cat0124'
p1024
S'v'
sS'cat0125'
p1025
S'v'
sS'cat0126'
p1026
S'v'
sS'cat0127'
p1027
S'v'
sS'cat0494'
p1028
g204
sS'cat0495'
p1029
g204
sS'cat0496'
p1030
g204
sS'cat0497'
p1031
g204
sS'cat0490'
p1032
g204
sS't'
S'5'
sS'cat0492'
p1033
g204
sS'cat0288'
p1034
g137
sS'cat0128'
p1035
S'v'
sS'cat0498'
p1036
g204
sS'cat0499'
p1037
g204
sS'cat0828'
p1038
g102
sS'cat0123'
p1039
S'v'
sS'cat0249'
p1040
g215
sS'cat0906'
p1041
g618
sS'av2Fi'
p1042
g401
sS'ah'
p1043
g319
sS'cat0531'
p1044
g200
sS'cat0129'
p1045
S'v'
sS'cat0054'
p1046
S'l'
sS'cat0055'
p1047
S'l'
sS'cat0821'
p1048
g794
sS'cat0057'
p1049
S'l'
sS'cat0050'
p1050
S'l'
sS'cat0051'
p1051
S'l'
sS'cat0052'
p1052
S'l'
sS'cat0053'
p1053
S'l'
sS'cat0753'
p1054
g5
sS'cat0752'
p1055
g5
sS'cat0736'
p1056
g398
sS'cat0750'
p1057
g5
sS'cat0058'
p1058
S'm'
sS'cat0059'
p1059
S'm'
sS'cat0755'
p1060
g5
sS'cat0754'
p1061
g5
sS'cat0747'
p1062
g5
sS'cat0553'
p1063
g381
sS'cat0159'
p1064
g853
sS'cat0659'
p1065
g32
sS'cat0491'
p1066
g204
sS'bd'
p1067
g346
sg535
g346
sS'bf'
p1068
g346
sS'cat0671'
p1069
g497
sS'ba'
p1070
g344
sS'bb'
p1071
g344
sS'bc'
p1072
g344
sS'bl'
p1073
g317
sS'bm'
p1074
g317
sS'bn'
p1075
g172
sS'bo'
p1076
g172
sS'bh'
p1077
g353
sS'bi'
p1078
g354
sS'bj'
p1079
g317
sS'bk'
p1080
g317
sS'cat0630'
p1081
g732
sS'cat0631'
p1082
g32
sS'bv'
p1083
g171
sS'cat0633'
p1084
g32
sS'cat0634'
p1085
g32
sS'cat0635'
p1086
g32
sS'cat0636'
p1087
g32
sS'cat0637'
p1088
g32
sS'cat0638'
p1089
g32
sS'cat0639'
p1090
g32
sS'bx'
p1091
g162
sS'by'
p1092
g162
sS'bz'
p1093
g162
sS'av2C'
p1094
g148
sS'av2B'
p1095
g148
sS'cat100.a'
p1096
S't'
sg401
g148
sg218
g148
sS'av2D'
p1097
g148
sS'o'
S'4'
sS'cat0924'
p1098
g67
sS'B'
S'0'
sS'cat0270'
p1099
g755
sS'cat0271'
p1100
g755
sS'cat0272'
p1101
g755
sS'cat0273'
p1102
g755
sS'cat0274'
p1103
S'ao'
p1104
sS'cat0275'
p1105
g1104
sS'cat0276'
p1106
S'ap'
p1107
sS'cat0277'
p1108
g1107
sS'cat0278'
p1109
g137
sS'cat0279'
p1110
g137
sS'cat0214'
p1111
g64
sS'cat0379'
p1112
g640
sS'cat0378'
p1113
S'av1'
p1114
sS'cat0441'
p1115
g391
sS'cat0215'
p1116
g64
sS'cat0447'
p1117
g391
sS'cat0446'
p1118
g391
sS'cat0445'
p1119
g391
sS'cat0444'
p1120
g391
sS'cat0371'
p1121
g3
sS'cat0199'
p1122
g418
sS'cat0449'
p1123
g391
sS'cat0448'
p1124
g391
sS'cat0375'
p1125
g1114
sS'cat0374'
p1126
g3
sS'cat0377'
p1127
g1114
sS'cat0376'
p1128
g1114
sS'cat0933'
p1129
g246
sS'cat0932'
p1130
g246
sS'cat0838'
p1131
g102
sS'cat0839'
p1132
g102
sS'cat0937'
p1133
g246
sS'cat0529'
p1134
g200
sS'cat0683'
p1135
g155
sS'cat0682'
p1136
g155
sS'cat0524'
p1137
g51
sS'cat0833'
p1138
g102
sS'cat0939'
p1139
g461
sS'cat0527'
p1140
g200
sS'cat0689'
p1141
g155
sS'cat0521'
p1142
g51
sS'cat0834'
p1143
g102
sS'cat0523'
p1144
g51
sS'cat252.a'
p1145
g541
sS'cat426.a'
p1146
g452
sS'cat0056'
p1147
S'l'
sS'az1'
p1148
g151
sS'az2'
p1149
g151
sS'cat0931'
p1150
g246
sS'cat0247'
p1151
g215
sS'cat0880'
p1152
g331
sS'cat0082'
p1153
S'q'
sS'cat0081'
p1154
S'q'
sS'cat0080'
p1155
S'q'
sS'cat0087'
p1156
S's'
sS'cat0086'
p1157
S'r'
sS'cat0085'
p1158
S'r'
sS'cat0084'
p1159
S'r'
sS'cat0089'
p1160
S's'
sS'cat0088'
p1161
S's'
sS'cat0680'
p1162
g155
sS'cat0707'
p1163
g395
sS'cat0218'
p1164
S'ai'
p1165
sS'cat0672'
p1166
g497
sS'cat0192'
p1167
g418
sS'cat768.a'
p1168
g35
sS'cat0583'
p1169
g291
sS'aq'
p1170
g560
sS'cat0493'
p1171
g204
sS'cat0664'
p1172
g497
sS'cat0591'
p1173
S'az3'
p1174
sS'cat0590'
p1175
g1174
sS'cat0593'
p1176
g1174
sS'cat0592'
p1177
g1174
sS'cat0595'
p1178
g1174
sS'cat0594'
p1179
g1174
sS'cat0849'
p1180
g177
sS'cat0596'
p1181
g1174
sS'cat0599'
p1182
g1174
sS'cat0598'
p1183
g1174
sS'cat0845'
p1184
g177
sS'cat0844'
p1185
g102
sS'cat0843'
p1186
g102
sS'cat0382'
p1187
g181
sS'cat0841'
p1188
g102
sS'cat0840'
p1189
g102
sS'aa'
p1190
S'8'
sS'ac'
p1191
S'8'
sS'ab'
p1192
S'8'
sS'ae'
p1193
S'9'
sS'ad'
p1194
S'8'
sS'ag'
p1195
S'9'
sS'af'
p1196
S'9'
sS'ai'
p1197
g319
sS'cat0384'
p1198
g181
sS'ak'
p1199
g558
sS'cat0663'
p1200
g32
sS'am'
p1201
g558
sS'al'
p1202
g558
sS'ao'
p1203
g560
sS'an'
p1204
g560
sS'cat0730'
p1205
g398
sS'ap'
p1206
g560
sg409
g561
sS'ar'
p1207
g561
sg96
g45
sS'at'
p1208
g561
sS'cat0799'
p1209
g334
sS'cat0798'
p1210
g334
sS'cat0797'
p1211
g334
sS'cat0796'
p1212
g334
sS'cat0795'
p1213
g334
sS'cat0794'
p1214
g334
sS'cat0793'
p1215
g304
sS'cat0792'
p1216
g304
sS'cat0791'
p1217
g304
sS'cat0790'
p1218
g304
sS'cat0018'
p1219
S'g'
sS'cat0150'
p1220
S'y'
sS'cat0153'
p1221
S'z'
sS'cat0152'
p1222
S'y2'
p1223
sS'cat0155'
p1224
S'z'
sS'cat0154'
p1225
S'z'
sS'cat0157'
p1226
g853
sS'cat0156'
p1227
S'z'
sS'cat0010'
p1228
S'e'
sS'cat0158'
p1229
g853
sS'cat0012'
p1230
S'e'
sS'cat0013'
p1231
S'e'
sS'cat0014'
p1232
S'e'
sS'cat0015'
p1233
S'e'
sS'cat0016'
p1234
S'f'
sS'cat0017'
p1235
S'g'
sS'cat0597'
p1236
g1174
sS'cat0530'
p1237
g200
sS'cat0935'
p1238
g246
sS'5'
S'A'
sS'cat0850'
p1239
g177
sS'cat0904'
p1240
g49
sS'cat392.a'
p1241
g272
sS'cat392.b'
p1242
g272
sS'cat0810'
p1243
g77
sS'cat0910'
p1244
g618
sS'cat0246'
p1245
g215
sS'E'
S'0'
sS'cat0428'
p1246
g441
sS'cat0831'
p1247
g102
sS'cat0759'
p1248
g5
sS'cat132.a'
p1249
g684
sS'cat0692'
p1250
g54
sS'cat0934'
p1251
g246
sS'cat0242'
p1252
g221
sS'cat0758'
p1253
g5
sS'cat0243'
p1254
g221
sS'cat0579'
p1255
g20
sS'cat0875'
p1256
g331
sS'cat408.a'
p1257
g91
sS'cat0248'
p1258
g215
sS'cat0988'
p1259
g653
sS'cat527.a'
p1260
g200
sS'cat0704'
p1261
g395
sS'cat0705'
p1262
g395
sS'cat0706'
p1263
g395
sS'cat0862'
p1264
g286
sS'cat0700'
p1265
g54
sS'cat0701'
p1266
g54
sS'cat0702'
p1267
g54
sS'cat0703'
p1268
g54
sS'cat0289'
p1269
g137
sS'cat0708'
p1270
g395
sS'cat0009'
p1271
S'e'
sS'cat0673'
p1272
g568
sS'cat0421'
p1273
g452
sS'cat0761'
p1274
g834
sS'u'
S'6'
sS'cat0420'
p1275
g452
sS'cat0302'
p1276
g137
sS'cat0751'
p1277
g5
sS'cat0370'
p1278
g3
s.